(dp0
S'gt'
p1
(lp2
(dp3
Vlabels
p4
(dp5
Vrelationships
p6
(lp7
(dp8
Vsynsets
p9
(lp10
sVsubject_id
p11
I3124360
sVpredicate
p12
VIN
p13
sVobject_id
p14
I3124362
sVrelationship_id
p15
I4479407
sa(dp16
Vsynsets
p17
(lp18
sVsubject_id
p19
I3188772
sVpredicate
p20
VIN
p21
sVobject_id
p22
I3939662
sVrelationship_id
p23
I4479409
sa(dp24
Vsynsets
p25
(lp26
sVsubject_id
p27
I3446085
sVpredicate
p28
VIN
p29
sVobject_id
p30
I3939663
sVrelationship_id
p31
I4479410
sa(dp32
Vsynsets
p33
(lp34
sVsubject_id
p35
I3250637
sVpredicate
p36
VIN
p37
sVobject_id
p38
I3939665
sVrelationship_id
p39
I4479411
sa(dp40
Vsynsets
p41
(lp42
sVsubject_id
p43
I3250638
sVpredicate
p44
VIN
p45
sVobject_id
p46
I3939665
sVrelationship_id
p47
I4479412
sa(dp48
Vsynsets
p49
(lp50
sVsubject_id
p51
I3346083
sVpredicate
p52
VON
p53
sVobject_id
p54
I3939666
sVrelationship_id
p55
I4479413
sasVimage_id
p56
I2326406
sVobjects
p57
(lp58
(dp59
Vh
p60
I45
sVobject_id
p61
I3039739
sVsynsets
p62
(lp63
Vweathervane.n.01
p64
asVw
p65
I40
sVy
p66
I56
sVx
p67
I161
sVnames
p68
(lp69
Vweather vane
p70
asa(dp71
Vh
p72
I43
sVobject_id
p73
I3424472
sVsynsets
p74
(lp75
Vclock.n.01
p76
asVw
p77
I43
sVy
p78
I348
sVx
p79
I133
sVnames
p80
(lp81
Vclock
p82
asa(dp83
Vh
p84
I32
sVobject_id
p85
I3124360
sVsynsets
p86
(lp87
Vbell.n.01
p88
asVw
p89
I32
sVx
p90
I141
sVy
p91
I256
sVattributes
p92
(lp93
Vsmall
p94
asVnames
p95
(lp96
Vbell
p97
asa(dp98
Vh
p99
I45
sVobject_id
p100
I3124361
sVsynsets
p101
(lp102
Vbell.n.01
p103
asVw
p104
I60
sVx
p105
I121
sVy
p106
I292
sVattributes
p107
(lp108
Vbig
p109
asVnames
p110
(lp111
Vbell
p112
asa(dp113
Vh
p114
I369
sVobject_id
p115
I3124362
sVsynsets
p116
(lp117
Vtower.n.01
p118
asVw
p119
I186
sVy
p120
I45
sVx
p121
I82
sVnames
p122
(lp123
Vtower
p124
asa(dp125
Vh
p126
I342
sVobject_id
p127
I3939662
sVsynsets
p128
(lp129
Vtower.n.01
p130
asVw
p131
I128
sVx
p132
I107
sVy
p133
I53
sVattributes
p134
(lp135
Vornate
p136
asVnames
p137
(lp138
Vtower
p139
asa(dp140
Vh
p141
I84
sVobject_id
p142
I3221663
sVsynsets
p143
(lp144
Vbannister.n.02
p145
asVw
p146
I230
sVx
p147
I0
sVy
p148
I385
sVattributes
p149
(lp150
Vconcrete
p151
asVnames
p152
(lp153
Vbalustrade
p154
asa(dp155
Vh
p156
I18
sVobject_id
p157
I3304010
sVsynsets
p158
(lp159
Vroof.n.01
p160
asVw
p161
I48
sVx
p162
I1
sVy
p163
I384
sVattributes
p164
(lp165
Vred
p166
asVnames
p167
(lp168
Vroof
p169
asa(dp170
Vh
p171
I45
sVobject_id
p172
I2906772
sVsynsets
p173
(lp174
Vcross.n.01
p175
asVw
p176
I39
sVy
p177
I57
sVx
p178
I164
sVnames
p179
(lp180
Vcross
p181
asa(dp182
Vh
p183
I309
sVobject_id
p184
I2906773
sVsynsets
p185
(lp186
Vtower.n.01
p187
asVw
p188
I130
sVy
p189
I101
sVx
p190
I104
sVnames
p191
(lp192
Vtower
p193
asa(dp194
Vh
p195
I128
sVobject_id
p196
I2963424
sVsynsets
p197
(lp198
Vhouse.n.01
p199
asVw
p200
I372
sVx
p201
I0
sVy
p202
I327
sVattributes
p203
(lp204
Vmany
p205
asVnames
p206
(lp207
Vhouses
p208
asa(dp209
Vh
p210
I291
sVobject_id
p211
I2752480
sVsynsets
p212
(lp213
Vclock_tower.n.01
p214
asVw
p215
I124
sVx
p216
I108
sVy
p217
I99
sVattributes
p218
(lp219
Vtall
p220
aVstone
p221
asVnames
p222
(lp223
Vclock tower
p224
asa(dp225
Vh
p226
I70
sVobject_id
p227
I3188772
sVsynsets
p228
(lp229
Vbell.n.01
p230
asVw
p231
I43
sVx
p232
I143
sVy
p233
I249
sVattributes
p234
(lp235
Vlarge
p236
asVnames
p237
(lp238
Vbell
p239
asa(dp240
Vh
p241
I223
sVobject_id
p242
I3188773
sVsynsets
p243
(lp244
Vbell.n.01
p245
asVw
p246
I167
sVy
p247
I125
sVx
p248
I99
sVnames
p249
(lp250
Vbell
p251
asa(dp252
Vh
p253
I370
sVobject_id
p254
I3939663
sVsynsets
p255
(lp256
sVw
p257
I124
sVy
p258
I55
sVx
p259
I109
sVnames
p260
(lp261
Vtower
p262
asa(dp263
Vh
p264
I24
sVobject_id
p265
I3446085
sVsynsets
p266
(lp267
Vbell.n.01
p268
asVw
p269
I22
sVx
p270
I146
sVy
p271
I301
sVattributes
p272
(lp273
Vlarge
p274
asVnames
p275
(lp276
Vbell
p277
asa(dp278
Vh
p279
I61
sVobject_id
p280
I3939664
sVsynsets
p281
(lp282
sVw
p283
I47
sVx
p284
I128
sVy
p285
I339
sVattributes
p286
(lp287
Vround
p288
asVnames
p289
(lp290
Vclock
p291
asa(dp292
Vh
p293
I19
sVobject_id
p294
I2989474
sVsynsets
p295
(lp296
Varm.n.01
p297
asVw
p298
I27
sVy
p299
I367
sVx
p300
I139
sVnames
p301
(lp302
Varms
p303
asa(dp304
Vh
p305
I96
sVobject_id
p306
I3939665
sVsynsets
p307
(lp308
sVw
p309
I232
sVy
p310
I379
sVx
p311
I0
sVnames
p312
(lp313
Vwall
p314
asa(dp315
Vh
p316
I27
sVobject_id
p317
I3250637
sVsynsets
p318
(lp319
Vhole.n.01
p320
asVw
p321
I58
sVy
p322
I390
sVx
p323
I159
sVnames
p324
(lp325
Vholes
p326
asa(dp327
Vh
p328
I46
sVobject_id
p329
I3250638
sVsynsets
p330
(lp331
Vhole.n.01
p332
asVw
p333
I115
sVy
p334
I409
sVx
p335
I1
sVnames
p336
(lp337
Vholes
p338
asa(dp339
Vh
p340
I142
sVobject_id
p341
I3939666
sVsynsets
p342
(lp343
sVw
p344
I118
sVy
p345
I100
sVx
p346
I115
sVnames
p347
(lp348
Vroof
p349
asa(dp350
Vh
p351
I35
sVobject_id
p352
I3346083
sVsynsets
p353
(lp354
Vweathervane.n.01
p355
asVw
p356
I45
sVx
p357
I155
sVy
p358
I65
sVattributes
p359
(lp360
Vgreen
p361
asVnames
p362
(lp363
Vweather vane
p364
asassVimage_name
p365
V2326406.jpg
p366
sa(dp367
Vlabels
p368
(dp369
Vrelationships
p370
(lp371
sVimage_id
p372
I4868
sVobjects
p373
(lp374
(dp375
Vh
p376
I54
sVobject_id
p377
I4383623
sVsynsets
p378
(lp379
sVw
p380
I134
sVx
p381
I25
sVy
p382
I199
sVattributes
p383
(lp384
Vtiled
p385
asVnames
p386
(lp387
Vfloor
p388
asa(dp389
Vh
p390
I42
sVobject_id
p391
I4383624
sVsynsets
p392
(lp393
sVw
p394
I110
sVx
p395
I45
sVy
p396
I199
sVattributes
p397
(lp398
Vtiled
p399
asVnames
p400
(lp401
Vfloor
p402
asa(dp403
Vh
p404
I84
sVobject_id
p405
I4383625
sVsynsets
p406
(lp407
sVw
p408
I44
sVy
p409
I37
sVx
p410
I322
sVnames
p411
(lp412
Vwall
p413
asassVimage_name
p414
V4868.jpg
p415
sa(dp416
Vlabels
p417
(dp418
Vrelationships
p419
(lp420
(dp421
Vsynsets
p422
(lp423
sVsubject_id
p424
I3524867
sVpredicate
p425
VOF
p426
sVobject_id
p427
I3155817
sVrelationship_id
p428
I3640619
sa(dp429
Vsynsets
p430
(lp431
Vhang.v.01
p432
asVsubject_id
p433
I2867048
sVpredicate
p434
Vhanging in front of
p435
sVobject_id
p436
I3524871
sVrelationship_id
p437
I3640627
sa(dp438
Vsynsets
p439
(lp440
Vabout.r.07
p441
asVsubject_id
p442
I1894640
sVpredicate
p443
Vnear top of
p444
sVobject_id
p445
I2626584
sVrelationship_id
p446
I3640628
sa(dp447
Vsynsets
p448
(lp449
Valong.r.01
p450
asVsubject_id
p451
I2913475
sVpredicate
p452
VON
p453
sVobject_id
p454
I2913477
sVrelationship_id
p455
I4000742
sa(dp456
Vsynsets
p457
(lp458
Valong.r.01
p459
asVsubject_id
p460
I2448962
sVpredicate
p461
Von top of
p462
sVobject_id
p463
I2448963
sVrelationship_id
p464
I3640631
sa(dp465
Vsynsets
p466
(lp467
Vin.r.01
p468
asVsubject_id
p469
I1872682
sVpredicate
p470
VIN
p471
sVobject_id
p472
I1872683
sVrelationship_id
p473
I3640632
sa(dp474
Vsynsets
p475
(lp476
Vin.r.01
p477
asVsubject_id
p478
I1878862
sVpredicate
p479
VIN
p480
sVobject_id
p481
I3812120
sVrelationship_id
p482
I4280696
sa(dp483
Vsynsets
p484
(lp485
Vbe.v.01
p486
asVsubject_id
p487
I2626584
sVpredicate
p488
Vtaken
p489
sVobject_id
p490
I3712917
sVrelationship_id
p491
I4092413
sasVimage_id
p492
I2406147
sVobjects
p493
(lp494
(dp495
Vh
p496
I330
sVobject_id
p497
I3524867
sVsynsets
p498
(lp499
Vsculpture.n.01
p500
asVw
p501
I279
sVx
p502
I146
sVy
p503
I3
sVattributes
p504
(lp505
Vshiny
p506
aVmetallic
p507
aVgolden
p508
asVnames
p509
(lp510
Vsculpture
p511
asa(dp512
Vh
p513
I116
sVobject_id
p514
I1832160
sVsynsets
p515
(lp516
Vsurfboard.n.01
p517
asVw
p518
I265
sVx
p519
I164
sVy
p520
I212
sVattributes
p521
(lp522
Vpictured
p523
asVnames
p524
(lp525
Vsurfboard
p526
asa(dp527
Vh
p528
I51
sVobject_id
p529
I3310673
sVsynsets
p530
(lp531
Vgoggles.n.01
p532
asVw
p533
I73
sVx
p534
I141
sVy
p535
I80
sVattributes
p536
(lp537
Vpictured
p538
asVnames
p539
(lp540
Vskating goggles
p541
asa(dp542
Vh
p543
I178
sVobject_id
p544
I3812120
sVsynsets
p545
(lp546
Vsky.n.01
p547
asVw
p548
I490
sVx
p549
I5
sVy
p550
I2
sVattributes
p551
(lp552
Vpictured
p553
aVblue
p554
asVnames
p555
(lp556
Vsky
p557
asa(dp558
Vh
p559
I39
sVobject_id
p560
I2757238
sVsynsets
p561
(lp562
Vmountain.n.01
p563
asVw
p564
I90
sVx
p565
I331
sVy
p566
I146
sVattributes
p567
(lp568
Vpictured
p569
asVnames
p570
(lp571
Vmountain
p572
asa(dp573
Vh
p574
I37
sVobject_id
p575
I2774007
sVsynsets
p576
(lp577
Vknee.n.01
p578
asVw
p579
I115
sVx
p580
I264
sVy
p581
I215
sVattributes
p582
(lp583
Vbent
p584
asVnames
p585
(lp586
Vknees
p587
asa(dp588
Vh
p589
I323
sVobject_id
p590
I3302105
sVsynsets
p591
(lp592
sVw
p593
I278
sVx
p594
I148
sVy
p595
I4
sVattributes
p596
(lp597
Vgold
p598
asVnames
p599
(lp600
Vaction figure
p601
asa(dp602
Vh
p603
I71
sVobject_id
p604
I3155817
sVsynsets
p605
(lp606
Vboard.n.02
p607
asVw
p608
I44
sVy
p609
I220
sVx
p610
I377
sVnames
p611
(lp612
Vboard
p613
asa(dp614
Vh
p615
I20
sVobject_id
p616
I2003216
sVsynsets
p617
(lp618
Vlight.n.01
p619
asVw
p620
I15
sVx
p621
I457
sVy
p622
I52
sVattributes
p623
(lp624
Vwhite
p625
aVpink
p626
asVnames
p627
(lp628
Vlight
p629
asa(dp630
Vh
p631
I17
sVobject_id
p632
I2003217
sVsynsets
p633
(lp634
Vlight.n.01
p635
asVw
p636
I14
sVx
p637
I445
sVy
p638
I45
sVattributes
p639
(lp640
Vwhite
p641
aVpink
p642
asVnames
p643
(lp644
Vlight
p645
asa(dp646
Vh
p647
I25
sVobject_id
p648
I2003218
sVsynsets
p649
(lp650
Vlight.n.01
p651
asVw
p652
I15
sVx
p653
I433
sVy
p654
I32
sVattributes
p655
(lp656
Vwhite
p657
aVpink
p658
asVnames
p659
(lp660
Vlight
p661
asa(dp662
Vh
p663
I25
sVobject_id
p664
I2003219
sVsynsets
p665
(lp666
Vlight.n.01
p667
asVw
p668
I21
sVx
p669
I414
sVy
p670
I25
sVattributes
p671
(lp672
Vwhite
p673
aVpink
p674
asVnames
p675
(lp676
Vlight
p677
asa(dp678
Vh
p679
I20
sVobject_id
p680
I2003220
sVsynsets
p681
(lp682
Vlight.n.01
p683
asVw
p684
I20
sVx
p685
I400
sVy
p686
I20
sVattributes
p687
(lp688
Vwhite
p689
aVpink
p690
asVnames
p691
(lp692
Vlight
p693
asa(dp694
Vh
p695
I168
sVobject_id
p696
I2406712
sVsynsets
p697
(lp698
Vsky.n.01
p699
asVw
p700
I492
sVx
p701
I5
sVy
p702
I2
sVattributes
p703
(lp704
Vblack
p705
aVblue
p706
asVnames
p707
(lp708
Vblue sky
p709
asa(dp710
Vh
p711
I95
sVobject_id
p712
I2967777
sVsynsets
p713
(lp714
Vsky.n.01
p715
asVw
p716
I65
sVx
p717
I54
sVy
p718
I28
sVattributes
p719
(lp720
Vblue
p721
aVblack
p722
asVnames
p723
(lp724
Vsky
p725
asa(dp726
Vh
p727
I72
sVobject_id
p728
I2634478
sVsynsets
p729
(lp730
Vmountain.n.01
p731
asVw
p732
I53
sVx
p733
I55
sVy
p734
I184
sVattributes
p735
(lp736
Vtipped
p737
asVnames
p738
(lp739
Vmountain
p740
asa(dp741
Vh
p742
I39
sVobject_id
p743
I2634479
sVsynsets
p744
(lp745
Vmountain.n.01
p746
asVw
p747
I53
sVx
p748
I102
sVy
p749
I163
sVattributes
p750
(lp751
Vtipped
p752
asVnames
p753
(lp754
Vmountain
p755
asa(dp756
Vh
p757
I37
sVobject_id
p758
I2634480
sVsynsets
p759
(lp760
Vmountain.n.01
p761
asVw
p762
I31
sVx
p763
I32
sVy
p764
I167
sVattributes
p765
(lp766
Vtipped
p767
asVnames
p768
(lp769
Vmountain
p770
asa(dp771
Vh
p772
I267
sVobject_id
p773
I2867048
sVsynsets
p774
(lp775
Vstatue.n.01
p776
asVw
p777
I227
sVy
p778
I52
sVx
p779
I187
sVnames
p780
(lp781
Vstatue
p782
asa(dp783
Vh
p784
I83
sVobject_id
p785
I3524871
sVsynsets
p786
(lp787
Vmountain.n.01
p788
asVw
p789
I157
sVy
p790
I146
sVx
p791
I334
sVnames
p792
(lp793
Vmountain
p794
asa(dp795
Vh
p796
I85
sVobject_id
p797
I1894640
sVsynsets
p798
(lp799
Vlight.n.02
p800
asVw
p801
I150
sVy
p802
I3
sVx
p803
I349
sVnames
p804
(lp805
Vlights
p806
asa(dp807
Vh
p808
I371
sVobject_id
p809
I2626584
sVsynsets
p810
(lp811
Vpicture.n.01
p812
asVw
p813
I492
sVy
p814
I0
sVx
p815
I6
sVnames
p816
(lp817
Vpicture
p818
asa(dp819
Vh
p820
I125
sVobject_id
p821
I3008737
sVsynsets
p822
(lp823
Vsnowboard.n.01
p824
asVw
p825
I280
sVx
p826
I149
sVy
p827
I207
sVattributes
p828
(lp829
Vpictured
p830
asVnames
p831
(lp832
Vsnowboard
p833
asa(dp834
Vh
p835
I38
sVobject_id
p836
I2913475
sVsynsets
p837
(lp838
Vgoggles.n.01
p839
asVw
p840
I35
sVy
p841
I94
sVx
p842
I163
sVnames
p843
(lp844
Vgoggles
p845
asa(dp846
Vh
p847
I325
sVobject_id
p848
I2913476
sVsynsets
p849
(lp850
Vstatue.n.01
p851
asVw
p852
I278
sVy
p853
I2
sVx
p854
I147
sVnames
p855
(lp856
Vstatue
p857
asa(dp858
Vh
p859
I57
sVobject_id
p860
I2913477
sVsynsets
p861
(lp862
Vhead.n.01
p863
asVw
p864
I58
sVx
p865
I148
sVy
p866
I80
sVattributes
p867
(lp868
Vstatue's
p869
asVnames
p870
(lp871
Vhead
p872
asa(dp873
Vh
p874
I74
sVobject_id
p875
I2448962
sVsynsets
p876
(lp877
Vhat.n.01
p878
asVw
p879
I95
sVy
p880
I66
sVx
p881
I132
sVnames
p882
(lp883
Vhat
p884
asa(dp885
Vh
p886
I291
sVobject_id
p887
I2448963
sVsynsets
p888
(lp889
Vstatue.n.01
p890
asVw
p891
I354
sVy
p892
I63
sVx
p893
I106
sVnames
p894
(lp895
Vstatue
p896
asa(dp897
Vh
p898
I61
sVobject_id
p899
I1872682
sVsynsets
p900
(lp901
Vcloud.n.01
p902
asVw
p903
I100
sVy
p904
I98
sVx
p905
I400
sVnames
p906
(lp907
Vclouds
p908
asa(dp909
Vh
p910
I146
sVobject_id
p911
I1872683
sVsynsets
p912
(lp913
Vsky.n.01
p914
asVw
p915
I492
sVy
p916
I7
sVx
p917
I1
sVnames
p918
(lp919
Vsky
p920
asa(dp921
Vh
p922
I30
sVobject_id
p923
I1878862
sVsynsets
p924
(lp925
Vtopographic_point.n.01
p926
asVw
p927
I72
sVx
p928
I18
sVy
p929
I10
sVattributes
p930
(lp931
Vdark
p932
asVnames
p933
(lp934
Vspot
p935
asa(dp936
Vh
p937
I310
sVobject_id
p938
I3712917
sVsynsets
p939
(lp940
Voutdoors.n.01
p941
asVw
p942
I465
sVy
p943
I9
sVx
p944
I34
sVnames
p945
(lp946
Voutdoors
p947
asassVimage_name
p948
V2406147.jpg
p949
sa(dp950
Vlabels
p951
(dp952
Vrelationships
p953
(lp954
(dp955
Vsynsets
p956
(lp957
Vin.r.01
p958
asVsubject_id
p959
I1640326
sVpredicate
p960
VIN
p961
sVobject_id
p962
I1640327
sVrelationship_id
p963
I3898114
sa(dp964
Vsynsets
p965
(lp966
Valong.r.01
p967
asVsubject_id
p968
I1640330
sVpredicate
p969
VON
p970
sVobject_id
p971
I1640329
sVrelationship_id
p972
I3898115
sa(dp973
Vsynsets
p974
(lp975
Valong.r.01
p976
asVsubject_id
p977
I1640331
sVpredicate
p978
VON
p979
sVobject_id
p980
I1640332
sVrelationship_id
p981
I3898116
sa(dp982
Vsynsets
p983
(lp984
sVsubject_id
p985
I1640334
sVpredicate
p986
Vwith
p987
sVobject_id
p988
I1640335
sVrelationship_id
p989
I3898117
sa(dp990
Vsynsets
p991
(lp992
sVsubject_id
p993
I1640338
sVpredicate
p994
Vwith
p995
sVobject_id
p996
I1640337
sVrelationship_id
p997
I3898118
sa(dp998
Vsynsets
p999
(lp1000
Valong.r.01
p1001
asVsubject_id
p1002
I3793286
sVpredicate
p1003
VON
p1004
sVobject_id
p1005
I1640340
sVrelationship_id
p1006
I4257027
sa(dp1007
Vsynsets
p1008
(lp1009
Valong.r.01
p1010
asVsubject_id
p1011
I3793287
sVpredicate
p1012
VON
p1013
sVobject_id
p1014
I3793288
sVrelationship_id
p1015
I4257028
sa(dp1016
Vsynsets
p1017
(lp1018
Vin.r.01
p1019
asVsubject_id
p1020
I3793290
sVpredicate
p1021
Vin a
p1022
sVobject_id
p1023
I3793289
sVrelationship_id
p1024
I4257029
sa(dp1025
Vsynsets
p1026
(lp1027
Valong.r.01
p1028
asVsubject_id
p1029
I1640343
sVpredicate
p1030
VON
p1031
sVobject_id
p1032
I1640344
sVrelationship_id
p1033
I3898119
sa(dp1034
Vsynsets
p1035
(lp1036
Valong.r.01
p1037
asVsubject_id
p1038
I1640345
sVpredicate
p1039
VON
p1040
sVobject_id
p1041
I1640354
sVrelationship_id
p1042
I3898120
sa(dp1043
Vsynsets
p1044
(lp1045
Vstay.v.02
p1046
asVsubject_id
p1047
I1640347
sVpredicate
p1048
Vsticking into side of
p1049
sVobject_id
p1050
I3793288
sVrelationship_id
p1051
I4257030
sa(dp1052
Vsynsets
p1053
(lp1054
Valong.r.01
p1055
asVsubject_id
p1056
I1640348
sVpredicate
p1057
VON
p1058
sVobject_id
p1059
I1640349
sVrelationship_id
p1060
I3898121
sa(dp1061
Vsynsets
p1062
(lp1063
Valong.r.01
p1064
asVsubject_id
p1065
I1640350
sVpredicate
p1066
VON
p1067
sVobject_id
p1068
I1640351
sVrelationship_id
p1069
I3898122
sa(dp1070
Vsynsets
p1071
(lp1072
Valong.r.01
p1073
asVsubject_id
p1074
I1640353
sVpredicate
p1075
VON
p1076
sVobject_id
p1077
I1640352
sVrelationship_id
p1078
I3898123
sa(dp1079
Vsynsets
p1080
(lp1081
Valong.r.01
p1082
asVsubject_id
p1083
I1640357
sVpredicate
p1084
VON
p1085
sVobject_id
p1086
I1640358
sVrelationship_id
p1087
I3898124
sa(dp1088
Vsynsets
p1089
(lp1090
Valong.r.01
p1091
asVsubject_id
p1092
I1640359
sVpredicate
p1093
VON
p1094
sVobject_id
p1095
I1640360
sVrelationship_id
p1096
I3898125
sa(dp1097
Vsynsets
p1098
(lp1099
Valong.r.01
p1100
asVsubject_id
p1101
I1640361
sVpredicate
p1102
VON
p1103
sVobject_id
p1104
I1640362
sVrelationship_id
p1105
I3898126
sa(dp1106
Vsynsets
p1107
(lp1108
Vin.r.01
p1109
asVsubject_id
p1110
I1640363
sVpredicate
p1111
VIN
p1112
sVobject_id
p1113
I1640364
sVrelationship_id
p1114
I3898127
sasVimage_id
p1115
I1344
sVobjects
p1116
(lp1117
(dp1118
Vh
p1119
I41
sVobject_id
p1120
I1640325
sVsynsets
p1121
(lp1122
Vcord.n.01
p1123
asVw
p1124
I47
sVx
p1125
I298
sVy
p1126
I156
sVattributes
p1127
(lp1128
Vblack 
p1129
asVnames
p1130
(lp1131
Vcord
p1132
asa(dp1133
Vh
p1134
I89
sVobject_id
p1135
I1640327
sVsynsets
p1136
(lp1137
Vvase.n.01
p1138
asVw
p1139
I50
sVy
p1140
I156
sVx
p1141
I80
sVnames
p1142
(lp1143
Vvase
p1144
asa(dp1145
Vh
p1146
I101
sVobject_id
p1147
I1640326
sVsynsets
p1148
(lp1149
sVw
p1150
I55
sVy
p1151
I23
sVx
p1152
I38
sVnames
p1153
(lp1154
Vrose
p1155
asa(dp1156
Vh
p1157
I49
sVobject_id
p1158
I1640328
sVsynsets
p1159
(lp1160
Vcup.n.01
p1161
asVw
p1162
I48
sVx
p1163
I35
sVy
p1164
I202
sVattributes
p1165
(lp1166
Vempty
p1167
asVnames
p1168
(lp1169
Vcup
p1170
asa(dp1171
Vh
p1172
I45
sVobject_id
p1173
I1640330
sVsynsets
p1174
(lp1175
Vdisk.n.01
p1176
asVw
p1177
I68
sVy
p1178
I307
sVx
p1179
I135
sVnames
p1180
(lp1181
Vsaucer
p1182
asa(dp1183
Vh
p1184
I66
sVobject_id
p1185
I1640329
sVsynsets
p1186
(lp1187
Vcup.n.01
p1188
asVw
p1189
I56
sVx
p1190
I157
sVy
p1191
I271
sVattributes
p1192
(lp1193
Vceramic
p1194
asVnames
p1195
(lp1196
Vcup
p1197
asa(dp1198
Vh
p1199
I99
sVobject_id
p1200
I1640332
sVsynsets
p1201
(lp1202
Vplate.n.04
p1203
asVw
p1204
I43
sVy
p1205
I377
sVx
p1206
I75
sVnames
p1207
(lp1208
Vplate
p1209
asa(dp1210
Vh
p1211
I101
sVobject_id
p1212
I1640331
sVsynsets
p1213
(lp1214
Vcake.n.03
p1215
asVw
p1216
I37
sVy
p1217
I375
sVx
p1218
I122
sVnames
p1219
(lp1220
Vcake
p1221
asa(dp1222
Vh
p1223
I138
sVobject_id
p1224
I1640333
sVsynsets
p1225
(lp1226
Vmagazine.n.01
p1227
asVw
p1228
I126
sVx
p1229
I217
sVy
p1230
I215
sVattributes
p1231
(lp1232
VEconomist
p1233
asVnames
p1234
(lp1235
Vmagazine
p1236
asa(dp1237
Vh
p1238
I62
sVobject_id
p1239
I1640335
sVsynsets
p1240
(lp1241
Vseat.n.01
p1242
asVw
p1243
I125
sVx
p1244
I127
sVy
p1245
I147
sVattributes
p1246
(lp1247
Vleather
p1248
asVnames
p1249
(lp1250
Vseat
p1251
asa(dp1252
Vh
p1253
I177
sVobject_id
p1254
I1640334
sVsynsets
p1255
(lp1256
Vchair.n.01
p1257
asVw
p1258
I178
sVx
p1259
I87
sVy
p1260
I24
sVattributes
p1261
(lp1262
Vblack
p1263
asVnames
p1264
(lp1265
Vchair
p1266
asa(dp1267
Vh
p1268
I101
sVobject_id
p1269
I1640352
sVsynsets
p1270
(lp1271
Vcock.n.04
p1272
asVw
p1273
I90
sVy
p1274
I238
sVx
p1275
I242
sVnames
p1276
(lp1277
Vrooster
p1278
asa(dp1279
Vh
p1280
I13
sVobject_id
p1281
I1640338
sVsynsets
p1282
(lp1283
Vcream_pitcher.n.01
p1284
asVw
p1285
I27
sVy
p1286
I360
sVx
p1287
I239
sVnames
p1288
(lp1289
Vcreamer
p1290
asa(dp1291
Vh
p1292
I85
sVobject_id
p1293
I1640337
sVsynsets
p1294
(lp1295
Vcontainer.n.01
p1296
asVw
p1297
I56
sVy
p1298
I338
sVx
p1299
I225
sVnames
p1300
(lp1301
Vcontainer
p1302
asa(dp1303
Vh
p1304
I91
sVobject_id
p1305
I1640339
sVsynsets
p1306
(lp1307
Vtable.n.02
p1308
asVw
p1309
I84
sVx
p1310
I28
sVy
p1311
I261
sVattributes
p1312
(lp1313
Vwooden
p1314
asVnames
p1315
(lp1316
Vtable
p1317
asa(dp1318
Vh
p1319
I25
sVobject_id
p1320
I3793286
sVsynsets
p1321
(lp1322
sVw
p1323
I43
sVy
p1324
I7
sVx
p1325
I288
sVnames
p1326
(lp1327
Vsoldier picture
p1328
asa(dp1329
Vh
p1330
I33
sVobject_id
p1331
I1640340
sVsynsets
p1332
(lp1333
Vnewspaper.n.01
p1334
asVw
p1335
I94
sVy
p1336
I4
sVx
p1337
I275
sVnames
p1338
(lp1339
Vnewspaper
p1340
asa(dp1341
Vh
p1342
I144
sVobject_id
p1343
I3793288
sVsynsets
p1344
(lp1345
Vplate.n.04
p1346
asVw
p1347
I141
sVy
p1348
I354
sVx
p1349
I66
sVnames
p1350
(lp1351
Vplate
p1352
asa(dp1353
Vh
p1354
I100
sVobject_id
p1355
I3793287
sVsynsets
p1356
(lp1357
sVw
p1358
I47
sVy
p1359
I369
sVx
p1360
I119
sVnames
p1361
(lp1362
Vpie slice
p1363
asa(dp1364
Vh
p1365
I96
sVobject_id
p1366
I1640341
sVsynsets
p1367
(lp1368
Vplate.n.04
p1369
asVw
p1370
I35
sVy
p1371
I382
sVx
p1372
I78
sVnames
p1373
(lp1374
Vplate
p1375
asa(dp1376
Vh
p1377
I42
sVobject_id
p1378
I3793290
sVsynsets
p1379
(lp1380
Vcream.n.01
p1381
asVw
p1382
I35
sVy
p1383
I352
sVx
p1384
I239
sVnames
p1385
(lp1386
Vcream
p1387
asa(dp1388
Vh
p1389
I79
sVobject_id
p1390
I3793289
sVsynsets
p1391
(lp1392
Vcream_pitcher.n.01
p1393
asVw
p1394
I58
sVy
p1395
I341
sVx
p1396
I220
sVnames
p1397
(lp1398
Vcreamer
p1399
asa(dp1400
Vh
p1401
I28
sVobject_id
p1402
I1640342
sVsynsets
p1403
(lp1404
Vcream.n.01
p1405
asVw
p1406
I19
sVy
p1407
I357
sVx
p1408
I243
sVnames
p1409
(lp1410
Vcream
p1411
asa(dp1412
Vh
p1413
I190
sVobject_id
p1414
I1640344
sVsynsets
p1415
(lp1416
Vtable.n.02
p1417
asVw
p1418
I40
sVy
p1419
I265
sVx
p1420
I28
sVnames
p1421
(lp1422
Vtable
p1423
asa(dp1424
Vh
p1425
I144
sVobject_id
p1426
I1640343
sVsynsets
p1427
(lp1428
Vmagazine.n.01
p1429
asVw
p1430
I136
sVy
p1431
I207
sVx
p1432
I213
sVnames
p1433
(lp1434
Vmagazine
p1435
asa(dp1436
Vh
p1437
I88
sVobject_id
p1438
I1640354
sVsynsets
p1439
(lp1440
Vvase.n.01
p1441
asVw
p1442
I33
sVx
p1443
I88
sVy
p1444
I159
sVattributes
p1445
(lp1446
Vsilver
p1447
asVnames
p1448
(lp1449
Vvase
p1450
asa(dp1451
Vh
p1452
I131
sVobject_id
p1453
I1640345
sVsynsets
p1454
(lp1455
Vtulip.n.01
p1456
asVw
p1457
I43
sVx
p1458
I40
sVy
p1459
I24
sVattributes
p1460
(lp1461
VRed
p1462
asVnames
p1463
(lp1464
Vtulip
p1465
asa(dp1466
Vh
p1467
I57
sVobject_id
p1468
I1640347
sVsynsets
p1469
(lp1470
Vfork.n.01
p1471
asVw
p1472
I69
sVy
p1473
I415
sVx
p1474
I159
sVnames
p1475
(lp1476
Vfork
p1477
asa(dp1478
Vh
p1479
I39
sVobject_id
p1480
I1640349
sVsynsets
p1481
(lp1482
Vdisk.n.01
p1483
asVw
p1484
I47
sVy
p1485
I307
sVx
p1486
I137
sVnames
p1487
(lp1488
Vsaucer
p1489
asa(dp1490
Vh
p1491
I70
sVobject_id
p1492
I1640348
sVsynsets
p1493
(lp1494
Vcoffee.n.01
p1495
asVw
p1496
I56
sVy
p1497
I261
sVx
p1498
I153
sVnames
p1499
(lp1500
Vcoffee
p1501
asa(dp1502
Vh
p1503
I44
sVobject_id
p1504
I1640351
sVsynsets
p1505
(lp1506
Vdisk.n.01
p1507
asVw
p1508
I43
sVy
p1509
I300
sVx
p1510
I135
sVnames
p1511
(lp1512
Vsaucer
p1513
asa(dp1514
Vh
p1515
I71
sVobject_id
p1516
I1640350
sVsynsets
p1517
(lp1518
Vspoon.n.01
p1519
asVw
p1520
I15
sVy
p1521
I284
sVx
p1522
I210
sVnames
p1523
(lp1524
Vspoon
p1525
asa(dp1526
Vh
p1527
I156
sVobject_id
p1528
I1640353
sVsynsets
p1529
(lp1530
Vmagazine.n.01
p1531
asVw
p1532
I146
sVy
p1533
I199
sVx
p1534
I204
sVnames
p1535
(lp1536
Vmagazine
p1537
asa(dp1538
Vh
p1539
I21
sVobject_id
p1540
I1640355
sVsynsets
p1541
(lp1542
Vcream.n.01
p1543
asVw
p1544
I20
sVy
p1545
I383
sVx
p1546
I129
sVnames
p1547
(lp1548
Vwhipped cream
p1549
asa(dp1550
Vh
p1551
I48
sVobject_id
p1552
I1640356
sVsynsets
p1553
(lp1554
Vpot.n.04
p1555
asVw
p1556
I44
sVx
p1557
I37
sVy
p1558
I202
sVattributes
p1559
(lp1560
Vsmall
p1561
aVdark
p1562
asVnames
p1563
(lp1564
Vflowerpot
p1565
asa(dp1566
Vh
p1567
I87
sVobject_id
p1568
I1640358
sVsynsets
p1569
(lp1570
Vvase.n.01
p1571
asVw
p1572
I36
sVx
p1573
I89
sVy
p1574
I155
sVattributes
p1575
(lp1576
Vmetal
p1577
asVnames
p1578
(lp1579
Vvase
p1580
asa(dp1581
Vh
p1582
I129
sVobject_id
p1583
I1640357
sVsynsets
p1584
(lp1585
Vtulip.n.01
p1586
asVw
p1587
I57
sVx
p1588
I39
sVy
p1589
I27
sVattributes
p1590
(lp1591
VRed
p1592
asVnames
p1593
(lp1594
Vtulip
p1595
asa(dp1596
Vh
p1597
I51
sVobject_id
p1598
I1640360
sVsynsets
p1599
(lp1600
Vdisk.n.01
p1601
asVw
p1602
I42
sVy
p1603
I292
sVx
p1604
I135
sVnames
p1605
(lp1606
Vsaucer
p1607
asa(dp1608
Vh
p1609
I30
sVobject_id
p1610
I1640359
sVsynsets
p1611
(lp1612
Vcoffee.n.01
p1613
asVw
p1614
I39
sVy
p1615
I274
sVx
p1616
I165
sVnames
p1617
(lp1618
Vcoffee
p1619
asa(dp1620
Vh
p1621
I98
sVobject_id
p1622
I1640362
sVsynsets
p1623
(lp1624
Vplate.n.04
p1625
asVw
p1626
I50
sVy
p1627
I377
sVx
p1628
I69
sVnames
p1629
(lp1630
Vplate
p1631
asa(dp1632
Vh
p1633
I91
sVobject_id
p1634
I1640361
sVsynsets
p1635
(lp1636
Vpie.n.01
p1637
asVw
p1638
I34
sVy
p1639
I379
sVx
p1640
I121
sVnames
p1641
(lp1642
Vpie
p1643
asa(dp1644
Vh
p1645
I74
sVobject_id
p1646
I1640364
sVsynsets
p1647
(lp1648
Vjug.n.01
p1649
asVw
p1650
I47
sVx
p1651
I225
sVy
p1652
I341
sVattributes
p1653
(lp1654
Vwhite
p1655
aVSmall
p1656
asVnames
p1657
(lp1658
Vjug
p1659
asa(dp1660
Vh
p1661
I25
sVobject_id
p1662
I1640363
sVsynsets
p1663
(lp1664
Vcream.n.01
p1665
asVw
p1666
I28
sVy
p1667
I361
sVx
p1668
I238
sVnames
p1669
(lp1670
Vcream
p1671
asa(dp1672
Vh
p1673
I152
sVobject_id
p1674
I1640365
sVsynsets
p1675
(lp1676
Vmagazine.n.01
p1677
asVw
p1678
I148
sVx
p1679
I208
sVy
p1680
I206
sVattributes
p1681
(lp1682
VEconomist
p1683
asVnames
p1684
(lp1685
Vmagazine
p1686
asassVimage_name
p1687
V1344.jpg
p1688
sa(dp1689
Vlabels
p1690
(dp1691
Vrelationships
p1692
(lp1693
(dp1694
Vsynsets
p1695
(lp1696
Valong.r.01
p1697
asVsubject_id
p1698
I581110
sVpredicate
p1699
Von shoulder of
p1700
sVobject_id
p1701
I581111
sVrelationship_id
p1702
I1452807
sa(dp1703
Vsynsets
p1704
(lp1705
Vhave.v.01
p1706
asVsubject_id
p1707
I581111
sVpredicate
p1708
Vhas
p1709
sVobject_id
p1710
I581112
sVrelationship_id
p1711
I1452808
sa(dp1712
Vsynsets
p1713
(lp1714
Vhave.v.01
p1715
asVsubject_id
p1716
I581113
sVpredicate
p1717
Vhas
p1718
sVobject_id
p1719
I581114
sVrelationship_id
p1720
I1452809
sa(dp1721
Vsynsets
p1722
(lp1723
Vwear.v.01
p1724
asVsubject_id
p1725
I581111
sVpredicate
p1726
VWEARING
p1727
sVobject_id
p1728
I581115
sVrelationship_id
p1729
I1452810
sa(dp1730
Vsynsets
p1731
(lp1732
sVsubject_id
p1733
I581118
sVpredicate
p1734
Vto
p1735
sVobject_id
p1736
I581119
sVrelationship_id
p1737
I1452811
sa(dp1738
Vsynsets
p1739
(lp1740
Vhave.v.01
p1741
asVsubject_id
p1742
I581112
sVpredicate
p1743
Vholding
p1744
sVobject_id
p1745
I581113
sVrelationship_id
p1746
I1452812
sa(dp1747
Vsynsets
p1748
(lp1749
Vhave.v.01
p1750
asVsubject_id
p1751
I581111
sVpredicate
p1752
Vhas
p1753
sVobject_id
p1754
I581121
sVrelationship_id
p1755
I1452813
sa(dp1756
Vsynsets
p1757
(lp1758
Valong.r.01
p1759
asVsubject_id
p1760
I581110
sVpredicate
p1761
Von top of
p1762
sVobject_id
p1763
I581121
sVrelationship_id
p1764
I1452814
sa(dp1765
Vsynsets
p1766
(lp1767
Vhave.v.01
p1768
asVsubject_id
p1769
I581113
sVpredicate
p1770
Vheld by
p1771
sVobject_id
p1772
I581112
sVrelationship_id
p1773
I1452815
sa(dp1774
Vsynsets
p1775
(lp1776
Vhave.v.01
p1777
asVsubject_id
p1778
I581111
sVpredicate
p1779
Vhas
p1780
sVobject_id
p1781
I581112
sVrelationship_id
p1782
I1452816
sa(dp1783
Vsynsets
p1784
(lp1785
Vlook.v.02
p1786
asVsubject_id
p1787
I581111
sVpredicate
p1788
Vlooking down at
p1789
sVobject_id
p1790
I581113
sVrelationship_id
p1791
I1452817
sa(dp1792
Vsynsets
p1793
(lp1794
Vover.r.01
p1795
asVsubject_id
p1796
I581117
sVpredicate
p1797
Vover
p1798
sVobject_id
p1799
I581122
sVrelationship_id
p1800
I1452818
sa(dp1801
Vsynsets
p1802
(lp1803
Vhave.v.01
p1804
asVsubject_id
p1805
I581111
sVpredicate
p1806
Vhas
p1807
sVobject_id
p1808
I581122
sVrelationship_id
p1809
I1452819
sa(dp1810
Vsynsets
p1811
(lp1812
Vhang.v.01
p1813
asVsubject_id
p1814
I581120
sVpredicate
p1815
Vhanging from
p1816
sVobject_id
p1817
I581123
sVrelationship_id
p1818
I1452820
sa(dp1819
Vsynsets
p1820
(lp1821
Vhave.v.01
p1822
asVsubject_id
p1823
I581110
sVpredicate
p1824
Vhas
p1825
sVobject_id
p1826
I581124
sVrelationship_id
p1827
I1452821
sa(dp1828
Vsynsets
p1829
(lp1830
Vhave.v.01
p1831
asVsubject_id
p1832
I581111
sVpredicate
p1833
Vhas
p1834
sVobject_id
p1835
I581125
sVrelationship_id
p1836
I1452822
sa(dp1837
Vsynsets
p1838
(lp1839
Vwear.v.01
p1840
asVsubject_id
p1841
I581116
sVpredicate
p1842
Vworn on
p1843
sVobject_id
p1844
I581125
sVrelationship_id
p1845
I1452823
sa(dp1846
Vsynsets
p1847
(lp1848
Vhave.v.01
p1849
asVsubject_id
p1850
I581118
sVpredicate
p1851
Vhas
p1852
sVobject_id
p1853
I581127
sVrelationship_id
p1854
I1452824
sa(dp1855
Vsynsets
p1856
(lp1857
Vwear.v.01
p1858
asVsubject_id
p1859
I581111
sVpredicate
p1860
VWEARING
p1861
sVobject_id
p1862
I581117
sVrelationship_id
p1863
I1452825
sa(dp1864
Vsynsets
p1865
(lp1866
Vwear.v.01
p1867
asVsubject_id
p1868
I581111
sVpredicate
p1869
VWEARING
p1870
sVobject_id
p1871
I581115
sVrelationship_id
p1872
I1452826
sa(dp1873
Vsynsets
p1874
(lp1875
Vhave.v.01
p1876
asVsubject_id
p1877
I581111
sVpredicate
p1878
Vholding
p1879
sVobject_id
p1880
I581113
sVrelationship_id
p1881
I1452827
sa(dp1882
Vsynsets
p1883
(lp1884
Vwear.v.01
p1885
asVsubject_id
p1886
I581111
sVpredicate
p1887
VWEARING
p1888
sVobject_id
p1889
I581116
sVrelationship_id
p1890
I1452828
sa(dp1891
Vsynsets
p1892
(lp1893
Vsit.v.01
p1894
asVsubject_id
p1895
I581110
sVpredicate
p1896
Vsitting on top of
p1897
sVobject_id
p1898
I581121
sVrelationship_id
p1899
I1452829
sa(dp1900
Vsynsets
p1901
(lp1902
Vhave.v.01
p1903
asVsubject_id
p1904
I581111
sVpredicate
p1905
Vhas
p1906
sVobject_id
p1907
I581121
sVrelationship_id
p1908
I1452830
sa(dp1909
Vsynsets
p1910
(lp1911
Vhave.v.01
p1912
asVsubject_id
p1913
I581111
sVpredicate
p1914
Vhas
p1915
sVobject_id
p1916
I581128
sVrelationship_id
p1917
I1452831
sa(dp1918
Vsynsets
p1919
(lp1920
Vbe.v.01
p1921
asVsubject_id
p1922
I581110
sVpredicate
p1923
Vlooking at
p1924
sVobject_id
p1925
I581111
sVrelationship_id
p1926
I1452832
sa(dp1927
Vsynsets
p1928
(lp1929
Vnecessitate.v.01
p1930
asVsubject_id
p1931
I581111
sVpredicate
p1932
Vtaking picture with
p1933
sVobject_id
p1934
I581110
sVrelationship_id
p1935
I1452833
sa(dp1936
Vsynsets
p1937
(lp1938
Valong.r.01
p1939
asVsubject_id
p1940
I581110
sVpredicate
p1941
Vperched on
p1942
sVobject_id
p1943
I581121
sVrelationship_id
p1944
I1452834
sa(dp1945
Vsynsets
p1946
(lp1947
Vhave.v.01
p1948
asVsubject_id
p1949
I581111
sVpredicate
p1950
Vhas
p1951
sVobject_id
p1952
I581121
sVrelationship_id
p1953
I1452835
sa(dp1954
Vsynsets
p1955
(lp1956
Valong.r.01
p1957
asVsubject_id
p1958
I581120
sVpredicate
p1959
Vhanging on
p1960
sVobject_id
p1961
I581123
sVrelationship_id
p1962
I1452836
sa(dp1963
Vsynsets
p1964
(lp1965
Vbehind.r.01
p1966
asVsubject_id
p1967
I581118
sVpredicate
p1968
Vbehind
p1969
sVobject_id
p1970
I581111
sVrelationship_id
p1971
I1452837
sa(dp1972
Vsynsets
p1973
(lp1974
Vnecessitate.v.01
p1975
asVsubject_id
p1976
I581111
sVpredicate
p1977
Vtaking pictures with
p1978
sVobject_id
p1979
I581113
sVrelationship_id
p1980
I1452838
sa(dp1981
Vsynsets
p1982
(lp1983
Vlook.v.02
p1984
asVsubject_id
p1985
I581110
sVpredicate
p1986
Vlooking down from
p1987
sVobject_id
p1988
I581121
sVrelationship_id
p1989
I1452839
sa(dp1990
Vsynsets
p1991
(lp1992
Vhave.v.01
p1993
asVsubject_id
p1994
I581111
sVpredicate
p1995
Vhas
p1996
sVobject_id
p1997
I581121
sVrelationship_id
p1998
I1452840
sa(dp1999
Vsynsets
p2000
(lp2001
Vwear.v.01
p2002
asVsubject_id
p2003
I581111
sVpredicate
p2004
VWEARING
p2005
sVobject_id
p2006
I581117
sVrelationship_id
p2007
I1452841
sa(dp2008
Vsynsets
p2009
(lp2010
Vlook.v.02
p2011
asVsubject_id
p2012
I581111
sVpredicate
p2013
Vlooking at
p2014
sVobject_id
p2015
I581113
sVrelationship_id
p2016
I1452842
sa(dp2017
Vsynsets
p2018
(lp2019
Vsit.v.01
p2020
asVsubject_id
p2021
I581110
sVpredicate
p2022
Vsitting on
p2023
sVobject_id
p2024
I581121
sVrelationship_id
p2025
I1452843
sa(dp2026
Vsynsets
p2027
(lp2028
Vhave.v.01
p2029
asVsubject_id
p2030
I581111
sVpredicate
p2031
Vhas
p2032
sVobject_id
p2033
I581121
sVrelationship_id
p2034
I1452844
sa(dp2035
Vsynsets
p2036
(lp2037
Vhave.v.01
p2038
asVsubject_id
p2039
I581111
sVpredicate
p2040
Vhas
p2041
sVobject_id
p2042
I581128
sVrelationship_id
p2043
I1452845
sa(dp2044
Vsynsets
p2045
(lp2046
Vwear.v.01
p2047
asVsubject_id
p2048
I581111
sVpredicate
p2049
VWEARING
p2050
sVobject_id
p2051
I581117
sVrelationship_id
p2052
I1452846
sa(dp2053
Vsynsets
p2054
(lp2055
Vhave.v.01
p2056
asVsubject_id
p2057
I581111
sVpredicate
p2058
Vholding
p2059
sVobject_id
p2060
I581113
sVrelationship_id
p2061
I1452847
sa(dp2062
Vsynsets
p2063
(lp2064
Valong.r.01
p2065
asVsubject_id
p2066
I581110
sVpredicate
p2067
Von top of
p2068
sVobject_id
p2069
I581121
sVrelationship_id
p2070
I1452848
sa(dp2071
Vsynsets
p2072
(lp2073
Vhave.v.01
p2074
asVsubject_id
p2075
I581111
sVpredicate
p2076
Vhas
p2077
sVobject_id
p2078
I581121
sVrelationship_id
p2079
I1452849
sa(dp2080
Vsynsets
p2081
(lp2082
Vwear.v.01
p2083
asVsubject_id
p2084
I581111
sVpredicate
p2085
VWEARING
p2086
sVobject_id
p2087
I581115
sVrelationship_id
p2088
I1452850
sa(dp2089
Vsynsets
p2090
(lp2091
Vlook.v.02
p2092
asVsubject_id
p2093
I581110
sVpredicate
p2094
Vlooking down at
p2095
sVobject_id
p2096
I581113
sVrelationship_id
p2097
I1452851
sasVimage_id
p2098
I2375613
sVobjects
p2099
(lp2100
(dp2101
Vh
p2102
I213
sVobject_id
p2103
I581110
sVsynsets
p2104
(lp2105
Vcat.n.01
p2106
asVw
p2107
I148
sVx
p2108
I137
sVy
p2109
I14
sVattributes
p2110
(lp2111
Vblack
p2112
aVbrown
p2113
aVorange
p2114
aVcalico
p2115
asVnames
p2116
(lp2117
Vcat
p2118
asa(dp2119
Vh
p2120
I376
sVobject_id
p2121
I581111
sVsynsets
p2122
(lp2123
Vwoman.n.01
p2124
asVw
p2125
I341
sVy
p2126
I51
sVx
p2127
I2
sVnames
p2128
(lp2129
Vwoman
p2130
asa(dp2131
Vh
p2132
I145
sVobject_id
p2133
I581112
sVsynsets
p2134
(lp2135
Vhand.n.01
p2136
asVw
p2137
I137
sVy
p2138
I250
sVx
p2139
I25
sVnames
p2140
(lp2141
Vhands
p2142
asa(dp2143
Vh
p2144
I116
sVobject_id
p2145
I581113
sVsynsets
p2146
(lp2147
sVw
p2148
I66
sVx
p2149
I57
sVy
p2150
I220
sVattributes
p2151
(lp2152
Vmodern
p2153
aVgray
p2154
aVgrey
p2155
asVnames
p2156
(lp2157
Vsmartphone
p2158
asa(dp2159
Vh
p2160
I14
sVobject_id
p2161
I581114
sVsynsets
p2162
(lp2163
Vcamera.n.01
p2164
asVw
p2165
I12
sVy
p2166
I227
sVx
p2167
I105
sVnames
p2168
(lp2169
Vcamera
p2170
asa(dp2171
Vh
p2172
I240
sVobject_id
p2173
I581115
sVsynsets
p2174
(lp2175
Vrobe.n.01
p2176
asVw
p2177
I345
sVx
p2178
I2
sVy
p2179
I188
sVattributes
p2180
(lp2181
Vred
p2182
asVnames
p2183
(lp2184
Vrobe
p2185
asa(dp2186
Vh
p2187
I22
sVobject_id
p2188
I581116
sVsynsets
p2189
(lp2190
Vring.n.01
p2191
asVw
p2192
I11
sVx
p2193
I88
sVy
p2194
I312
sVattributes
p2195
(lp2196
Vsilver
p2197
asVnames
p2198
(lp2199
Vring
p2200
asa(dp2201
Vh
p2202
I33
sVobject_id
p2203
I581117
sVsynsets
p2204
(lp2205
Vspectacles.n.01
p2206
asVw
p2207
I110
sVx
p2208
I55
sVy
p2209
I133
sVattributes
p2210
(lp2211
Vbrown
p2212
asVnames
p2213
(lp2214
Vglasses
p2215
asa(dp2216
Vh
p2217
I280
sVobject_id
p2218
I581118
sVsynsets
p2219
(lp2220
Vdoor.n.01
p2221
asVw
p2222
I30
sVx
p2223
I16
sVy
p2224
I0
sVattributes
p2225
(lp2226
Vopen
p2227
asVnames
p2228
(lp2229
Vdoor
p2230
asa(dp2231
Vh
p2232
I499
sVobject_id
p2233
I581119
sVsynsets
p2234
(lp2235
Vbathroom.n.01
p2236
asVw
p2237
I372
sVy
p2238
I0
sVx
p2239
I0
sVnames
p2240
(lp2241
Vbathroom
p2242
asa(dp2243
Vh
p2244
I125
sVobject_id
p2245
I581120
sVsynsets
p2246
(lp2247
Vtowel.n.01
p2248
asVw
p2249
I73
sVx
p2250
I302
sVy
p2251
I302
sVattributes
p2252
(lp2253
Vwhite
p2254
aVhanging
p2255
asVnames
p2256
(lp2257
Vtowel
p2258
asa(dp2259
Vh
p2260
I69
sVobject_id
p2261
I581121
sVsynsets
p2262
(lp2263
Vshoulder.n.01
p2264
asVw
p2265
I113
sVy
p2266
I183
sVx
p2267
I153
sVnames
p2268
(lp2269
Vshoulder
p2270
asa(dp2271
Vh
p2272
I14
sVobject_id
p2273
I581122
sVsynsets
p2274
(lp2275
Veye.n.01
p2276
asVw
p2277
I61
sVy
p2278
I140
sVx
p2279
I85
sVnames
p2280
(lp2281
Veyes
p2282
asa(dp2283
Vh
p2284
I18
sVobject_id
p2285
I581123
sVsynsets
p2286
(lp2287
Vrack.n.01
p2288
asVw
p2289
I70
sVy
p2290
I300
sVx
p2291
I304
sVnames
p2292
(lp2293
Vrack
p2294
asa(dp2295
Vh
p2296
I36
sVobject_id
p2297
I581124
sVsynsets
p2298
(lp2299
Vpaw.n.01
p2300
asVw
p2301
I27
sVx
p2302
I188
sVy
p2303
I191
sVattributes
p2304
(lp2305
Vwhite
p2306
aVbrown
p2307
asVnames
p2308
(lp2309
Vpaw
p2310
asa(dp2311
Vh
p2312
I29
sVobject_id
p2313
I581125
sVsynsets
p2314
(lp2315
Vfinger.n.01
p2316
asVw
p2317
I37
sVy
p2318
I306
sVx
p2319
I81
sVnames
p2320
(lp2321
Vfinger
p2322
asa(dp2323
Vh
p2324
I256
sVobject_id
p2325
I581126
sVsynsets
p2326
(lp2327
Vdoorway.n.01
p2328
asVw
p2329
I157
sVx
p2330
I47
sVy
p2331
I0
sVattributes
p2332
(lp2333
Vopen
p2334
asVnames
p2335
(lp2336
Vdoorway
p2337
asa(dp2338
Vh
p2339
I36
sVobject_id
p2340
I581127
sVsynsets
p2341
(lp2342
Vhinge.n.01
p2343
asVw
p2344
I14
sVy
p2345
I41
sVx
p2346
I13
sVnames
p2347
(lp2348
Vhinge
p2349
asa(dp2350
Vh
p2351
I158
sVobject_id
p2352
I581128
sVsynsets
p2353
(lp2354
Vhair.n.01
p2355
asVw
p2356
I156
sVx
p2357
I23
sVy
p2358
I50
sVattributes
p2359
(lp2360
Vbrown
p2361
aVlong
p2362
asVnames
p2363
(lp2364
Vhair
p2365
asassVimage_name
p2366
V2375613.jpg
p2367
sa(dp2368
Vlabels
p2369
(dp2370
Vrelationships
p2371
(lp2372
(dp2373
Vsynsets
p2374
(lp2375
Valong.r.01
p2376
asVsubject_id
p2377
I1355427
sVpredicate
p2378
VON
p2379
sVobject_id
p2380
I1355428
sVrelationship_id
p2381
I3612718
sa(dp2382
Vsynsets
p2383
(lp2384
Valong.r.01
p2385
asVsubject_id
p2386
I1355429
sVpredicate
p2387
VON
p2388
sVobject_id
p2389
I1355428
sVrelationship_id
p2390
I3612719
sa(dp2391
Vsynsets
p2392
(lp2393
Valong.r.01
p2394
asVsubject_id
p2395
I1355430
sVpredicate
p2396
VON
p2397
sVobject_id
p2398
I1355428
sVrelationship_id
p2399
I3612720
sa(dp2400
Vsynsets
p2401
(lp2402
Valong.r.01
p2403
asVsubject_id
p2404
I1355432
sVpredicate
p2405
Von top of
p2406
sVobject_id
p2407
I1355427
sVrelationship_id
p2408
I3612721
sa(dp2409
Vsynsets
p2410
(lp2411
Valong.r.01
p2412
asVsubject_id
p2413
I1355433
sVpredicate
p2414
Von top of
p2415
sVobject_id
p2416
I1355427
sVrelationship_id
p2417
I3612722
sa(dp2418
Vsynsets
p2419
(lp2420
Valong.r.01
p2421
asVsubject_id
p2422
I1355434
sVpredicate
p2423
VON
p2424
sVobject_id
p2425
I1355427
sVrelationship_id
p2426
I3612723
sa(dp2427
Vsynsets
p2428
(lp2429
Valong.r.01
p2430
asVsubject_id
p2431
I1355435
sVpredicate
p2432
VON
p2433
sVobject_id
p2434
I1355428
sVrelationship_id
p2435
I3612724
sa(dp2436
Vsynsets
p2437
(lp2438
Vfill.v.01
p2439
asVsubject_id
p2440
I1355436
sVpredicate
p2441
Vfilled with
p2442
sVobject_id
p2443
I1355437
sVrelationship_id
p2444
I3612725
sa(dp2445
Vsynsets
p2446
(lp2447
Valong.r.01
p2448
asVsubject_id
p2449
I1355433
sVpredicate
p2450
VON
p2451
sVobject_id
p2452
I1355427
sVrelationship_id
p2453
I3612726
sa(dp2454
Vsynsets
p2455
(lp2456
Valong.r.01
p2457
asVsubject_id
p2458
I1355430
sVpredicate
p2459
VON
p2460
sVobject_id
p2461
I1355428
sVrelationship_id
p2462
I3612727
sa(dp2463
Vsynsets
p2464
(lp2465
Valong.r.01
p2466
asVsubject_id
p2467
I1355434
sVpredicate
p2468
Von top of
p2469
sVobject_id
p2470
I1355427
sVrelationship_id
p2471
I3612728
sa(dp2472
Vsynsets
p2473
(lp2474
Valong.r.01
p2475
asVsubject_id
p2476
I1355435
sVpredicate
p2477
VON
p2478
sVobject_id
p2479
I1355428
sVrelationship_id
p2480
I3612729
sa(dp2481
Vsynsets
p2482
(lp2483
Vin.r.01
p2484
asVsubject_id
p2485
I1355439
sVpredicate
p2486
VIN
p2487
sVobject_id
p2488
I1355440
sVrelationship_id
p2489
I3612730
sa(dp2490
Vsynsets
p2491
(lp2492
Vinside.r.01
p2493
asVsubject_id
p2494
I1355437
sVpredicate
p2495
Vinside of
p2496
sVobject_id
p2497
I1355436
sVrelationship_id
p2498
I3612731
sa(dp2499
Vsynsets
p2500
(lp2501
Vsit.v.01
p2502
asVsubject_id
p2503
I1355430
sVpredicate
p2504
Vsitting on top of
p2505
sVobject_id
p2506
I1355428
sVrelationship_id
p2507
I3612732
sa(dp2508
Vsynsets
p2509
(lp2510
Valong.r.01
p2511
asVsubject_id
p2512
I1355442
sVpredicate
p2513
VON
p2514
sVobject_id
p2515
I1355430
sVrelationship_id
p2516
I3612733
sa(dp2517
Vsynsets
p2518
(lp2519
Vnext.r.01
p2520
asVsubject_id
p2521
I1355429
sVpredicate
p2522
Vnext to
p2523
sVobject_id
p2524
I1355436
sVrelationship_id
p2525
I3612734
sa(dp2526
Vsynsets
p2527
(lp2528
Valong.r.01
p2529
asVsubject_id
p2530
I1355440
sVpredicate
p2531
Von top of
p2532
sVobject_id
p2533
I1355428
sVrelationship_id
p2534
I3612735
sasVimage_id
p2535
I2379674
sVobjects
p2536
(lp2537
(dp2538
Vh
p2539
I373
sVobject_id
p2540
I1355428
sVsynsets
p2541
(lp2542
Vcounter.n.01
p2543
asVw
p2544
I498
sVx
p2545
I1
sVy
p2546
I2
sVattributes
p2547
(lp2548
Vred
p2549
asVnames
p2550
(lp2551
Vcounter
p2552
asa(dp2553
Vh
p2554
I97
sVobject_id
p2555
I1355427
sVsynsets
p2556
(lp2557
Vsalad.n.01
p2558
asVw
p2559
I149
sVy
p2560
I96
sVx
p2561
I309
sVnames
p2562
(lp2563
Vsalad
p2564
asa(dp2565
Vh
p2566
I92
sVobject_id
p2567
I1355429
sVsynsets
p2568
(lp2569
Vapple.n.01
p2570
asVw
p2571
I70
sVx
p2572
I191
sVy
p2573
I82
sVattributes
p2574
(lp2575
Vgreen
p2576
asVnames
p2577
(lp2578
Vapple
p2579
asa(dp2580
Vh
p2581
I160
sVobject_id
p2582
I1355430
sVsynsets
p2583
(lp2584
Vbottle.n.01
p2585
asVw
p2586
I108
sVx
p2587
I5
sVy
p2588
I3
sVattributes
p2589
(lp2590
Vyellow
p2591
aVplastic
p2592
aVclear
p2593
asVnames
p2594
(lp2595
Vbottle
p2596
asa(dp2597
Vh
p2598
I31
sVobject_id
p2599
I1355431
sVsynsets
p2600
(lp2601
Vstrawberry.n.01
p2602
asVw
p2603
I36
sVx
p2604
I119
sVy
p2605
I110
sVattributes
p2606
(lp2607
Vred
p2608
aVsliced
p2609
asVnames
p2610
(lp2611
Vstrawberry
p2612
asa(dp2613
Vh
p2614
I38
sVobject_id
p2615
I1355432
sVsynsets
p2616
(lp2617
Vegg.n.01
p2618
asVw
p2619
I48
sVx
p2620
I342
sVy
p2621
I140
sVattributes
p2622
(lp2623
Vwhite
p2624
aVboiled
p2625
aVhard boiled
p2626
asVnames
p2627
(lp2628
Vegg
p2629
asa(dp2630
Vh
p2631
I47
sVobject_id
p2632
I1355433
sVsynsets
p2633
(lp2634
Vcracker.n.01
p2635
asVw
p2636
I45
sVx
p2637
I303
sVy
p2638
I96
sVattributes
p2639
(lp2640
Vround
p2641
asVnames
p2642
(lp2643
Vcrackers
p2644
asa(dp2645
Vh
p2646
I58
sVobject_id
p2647
I1355434
sVsynsets
p2648
(lp2649
Vtomato.n.01
p2650
asVw
p2651
I91
sVx
p2652
I345
sVy
p2653
I92
sVattributes
p2654
(lp2655
Vstuffed
p2656
asVnames
p2657
(lp2658
Vtomato
p2659
asa(dp2660
Vh
p2661
I133
sVobject_id
p2662
I1355435
sVsynsets
p2663
(lp2664
Vnapkin.n.01
p2665
asVw
p2666
I85
sVy
p2667
I236
sVx
p2668
I410
sVnames
p2669
(lp2670
Vnapkins
p2671
asa(dp2672
Vh
p2673
I90
sVobject_id
p2674
I1355437
sVsynsets
p2675
(lp2676
Vfruit.n.01
p2677
asVw
p2678
I72
sVy
p2679
I108
sVx
p2680
I117
sVnames
p2681
(lp2682
Vfruit
p2683
asa(dp2684
Vh
p2685
I162
sVobject_id
p2686
I1355436
sVsynsets
p2687
(lp2688
Vcup.n.01
p2689
asVw
p2690
I122
sVy
p2691
I77
sVx
p2692
I88
sVnames
p2693
(lp2694
Vcup
p2695
asa(dp2696
Vh
p2697
I86
sVobject_id
p2698
I1355438
sVsynsets
p2699
(lp2700
Veyelid.n.01
p2701
asVw
p2702
I107
sVx
p2703
I92
sVy
p2704
I83
sVattributes
p2705
(lp2706
Vplastic
p2707
asVnames
p2708
(lp2709
Vlid
p2710
asa(dp2711
Vh
p2712
I178
sVobject_id
p2713
I1355440
sVsynsets
p2714
(lp2715
Vbowl.n.01
p2716
asVw
p2717
I188
sVx
p2718
I239
sVy
p2719
I175
sVattributes
p2720
(lp2721
Vclear
p2722
asVnames
p2723
(lp2724
Vbowl
p2725
asa(dp2726
Vh
p2727
I104
sVobject_id
p2728
I1355439
sVsynsets
p2729
(lp2730
sVw
p2731
I87
sVy
p2732
I221
sVx
p2733
I284
sVnames
p2734
(lp2735
Vcracker wrappers
p2736
asa(dp2737
Vh
p2738
I48
sVobject_id
p2739
I1355441
sVsynsets
p2740
(lp2741
Vcracker.n.01
p2742
asVw
p2743
I42
sVx
p2744
I414
sVy
p2745
I132
sVattributes
p2746
(lp2747
Vsquare
p2748
asVnames
p2749
(lp2750
Vcracker
p2751
asa(dp2752
Vh
p2753
I67
sVobject_id
p2754
I1355442
sVsynsets
p2755
(lp2756
Vlabel.n.01
p2757
asVw
p2758
I87
sVy
p2759
I54
sVx
p2760
I22
sVnames
p2761
(lp2762
Vlabel
p2763
asa(dp2764
Vh
p2765
I127
sVobject_id
p2766
I1355444
sVsynsets
p2767
(lp2768
Vchair.n.01
p2769
asVw
p2770
I83
sVx
p2771
I417
sVy
p2772
I15
sVattributes
p2773
(lp2774
Vwhite
p2775
asVnames
p2776
(lp2777
Vchair
p2778
asa(dp2779
Vh
p2780
I71
sVobject_id
p2781
I1355443
sVsynsets
p2782
(lp2783
Vchair.n.01
p2784
asVw
p2785
I124
sVx
p2786
I213
sVy
p2787
I2
sVattributes
p2788
(lp2789
Vwhite
p2790
asVnames
p2791
(lp2792
Vchair
p2793
asassVimage_name
p2794
V2379674.jpg
p2795
sa(dp2796
Vlabels
p2797
(dp2798
Vrelationships
p2799
(lp2800
(dp2801
Vsynsets
p2802
(lp2803
Valong.r.01
p2804
asVsubject_id
p2805
I893493
sVpredicate
p2806
VON
p2807
sVobject_id
p2808
I893494
sVrelationship_id
p2809
I2604475
sa(dp2810
Vsynsets
p2811
(lp2812
Valong.r.01
p2813
asVsubject_id
p2814
I893495
sVpredicate
p2815
VON
p2816
sVobject_id
p2817
I893494
sVrelationship_id
p2818
I2604476
sa(dp2819
Vsynsets
p2820
(lp2821
Valong.r.01
p2822
asVsubject_id
p2823
I893496
sVpredicate
p2824
VON
p2825
sVobject_id
p2826
I893494
sVrelationship_id
p2827
I2604477
sa(dp2828
Vsynsets
p2829
(lp2830
Valong.r.01
p2831
asVsubject_id
p2832
I893497
sVpredicate
p2833
VON
p2834
sVobject_id
p2835
I893494
sVrelationship_id
p2836
I2604478
sa(dp2837
Vsynsets
p2838
(lp2839
Valong.r.01
p2840
asVsubject_id
p2841
I893498
sVpredicate
p2842
VON
p2843
sVobject_id
p2844
I893494
sVrelationship_id
p2845
I2604479
sa(dp2846
Vsynsets
p2847
(lp2848
Valong.r.01
p2849
asVsubject_id
p2850
I893493
sVpredicate
p2851
VON
p2852
sVobject_id
p2853
I893494
sVrelationship_id
p2854
I2604480
sa(dp2855
Vsynsets
p2856
(lp2857
Vby.r.01
p2858
asVsubject_id
p2859
I893496
sVpredicate
p2860
Vby
p2861
sVobject_id
p2862
I893497
sVrelationship_id
p2863
I2604481
sa(dp2864
Vsynsets
p2865
(lp2866
Valong.r.01
p2867
asVsubject_id
p2868
I893496
sVpredicate
p2869
VON
p2870
sVobject_id
p2871
I893494
sVrelationship_id
p2872
I2604482
sa(dp2873
Vsynsets
p2874
(lp2875
Valong.r.01
p2876
asVsubject_id
p2877
I893495
sVpredicate
p2878
VON
p2879
sVobject_id
p2880
I893494
sVrelationship_id
p2881
I2604483
sa(dp2882
Vsynsets
p2883
(lp2884
Valong.r.01
p2885
asVsubject_id
p2886
I893496
sVpredicate
p2887
VON
p2888
sVobject_id
p2889
I893494
sVrelationship_id
p2890
I2604484
sa(dp2891
Vsynsets
p2892
(lp2893
Valong.r.01
p2894
asVsubject_id
p2895
I893493
sVpredicate
p2896
VON
p2897
sVobject_id
p2898
I893494
sVrelationship_id
p2899
I2604485
sa(dp2900
Vsynsets
p2901
(lp2902
Valong.r.01
p2903
asVsubject_id
p2904
I893496
sVpredicate
p2905
VON
p2906
sVobject_id
p2907
I893494
sVrelationship_id
p2908
I2604486
sa(dp2909
Vsynsets
p2910
(lp2911
Vapproximately.r.01
p2912
asVsubject_id
p2913
I893495
sVpredicate
p2914
Varound
p2915
sVobject_id
p2916
I893497
sVrelationship_id
p2917
I2604487
sa(dp2918
Vsynsets
p2919
(lp2920
Vby.r.01
p2921
asVsubject_id
p2922
I893497
sVpredicate
p2923
Vby
p2924
sVobject_id
p2925
I893495
sVrelationship_id
p2926
I2604488
sasVimage_id
p2927
I2347104
sVobjects
p2928
(lp2929
(dp2930
Vh
p2931
I51
sVobject_id
p2932
I893493
sVsynsets
p2933
(lp2934
Vpeanut.n.01
p2935
asVw
p2936
I59
sVx
p2937
I117
sVy
p2938
I153
sVattributes
p2939
(lp2940
Vtan
p2941
aVlarge
p2942
asVnames
p2943
(lp2944
Vpeanut
p2945
asa(dp2946
Vh
p2947
I373
sVobject_id
p2948
I893494
sVsynsets
p2949
(lp2950
Vplate.n.04
p2951
asVw
p2952
I498
sVx
p2953
I1
sVy
p2954
I0
sVattributes
p2955
(lp2956
Vwhite
p2957
asVnames
p2958
(lp2959
Vplate
p2960
asa(dp2961
Vh
p2962
I316
sVobject_id
p2963
I893495
sVsynsets
p2964
(lp2965
Vsauce.n.01
p2966
asVw
p2967
I422
sVx
p2968
I76
sVy
p2969
I57
sVattributes
p2970
(lp2971
Vreflecting
p2972
asVnames
p2973
(lp2974
Vsauce
p2975
asa(dp2976
Vh
p2977
I164
sVobject_id
p2978
I893496
sVsynsets
p2979
(lp2980
Vcarrot.n.01
p2981
asVw
p2982
I230
sVx
p2983
I123
sVy
p2984
I0
sVattributes
p2985
(lp2986
Vorange
p2987
aVlong
p2988
asVnames
p2989
(lp2990
Vcarrot
p2991
asa(dp2992
Vh
p2993
I139
sVobject_id
p2994
I893497
sVsynsets
p2995
(lp2996
Vpastry.n.01
p2997
asVw
p2998
I217
sVx
p2999
I259
sVy
p3000
I35
sVattributes
p3001
(lp3002
Vreflective
p3003
aVbrown
p3004
asVnames
p3005
(lp3006
Vpastry
p3007
asa(dp3008
Vh
p3009
I91
sVobject_id
p3010
I893498
sVsynsets
p3011
(lp3012
Vmeat.n.01
p3013
asVw
p3014
I140
sVx
p3015
I152
sVy
p3016
I0
sVattributes
p3017
(lp3018
Vdark
p3019
aVbrown
p3020
asVnames
p3021
(lp3022
Vmeat
p3023
asa(dp3024
Vh
p3025
I39
sVobject_id
p3026
I893499
sVsynsets
p3027
(lp3028
Vtable.n.02
p3029
asVw
p3030
I81
sVx
p3031
I418
sVy
p3032
I0
sVattributes
p3033
(lp3034
Vbrown
p3035
asVnames
p3036
(lp3037
Vtable
p3038
asassVimage_name
p3039
V2347104.jpg
p3040
sa(dp3041
Vlabels
p3042
(dp3043
Vrelationships
p3044
(lp3045
(dp3046
Vsynsets
p3047
(lp3048
sVsubject_id
p3049
I4449888
sVpredicate
p3050
Vwaiting to cross
p3051
sVobject_id
p3052
I4449889
sVrelationship_id
p3053
I4743538
sa(dp3054
Vsynsets
p3055
(lp3056
sVsubject_id
p3057
I4449890
sVpredicate
p3058
Vwith
p3059
sVobject_id
p3060
I4449891
sVrelationship_id
p3061
I4743539
sa(dp3062
Vsynsets
p3063
(lp3064
sVsubject_id
p3065
I4449892
sVpredicate
p3066
Vpointing
p3067
sVobject_id
p3068
I4449893
sVrelationship_id
p3069
I4743540
sa(dp3070
Vsynsets
p3071
(lp3072
sVsubject_id
p3073
I4449894
sVpredicate
p3074
Vsuspended  from
p3075
sVobject_id
p3076
I4449895
sVrelationship_id
p3077
I4743541
sa(dp3078
Vsynsets
p3079
(lp3080
sVsubject_id
p3081
I4449896
sVpredicate
p3082
VON
p3083
sVobject_id
p3084
I4449897
sVrelationship_id
p3085
I4743542
sa(dp3086
Vsynsets
p3087
(lp3088
sVsubject_id
p3089
I4449898
sVpredicate
p3090
Von
p3091
sVobject_id
p3092
I4449899
sVrelationship_id
p3093
I4743543
sa(dp3094
Vsynsets
p3095
(lp3096
sVsubject_id
p3097
I4449901
sVpredicate
p3098
VON
p3099
sVobject_id
p3100
I4449900
sVrelationship_id
p3101
I4743544
sa(dp3102
Vsynsets
p3103
(lp3104
sVsubject_id
p3105
I4449902
sVpredicate
p3106
VWEARING
p3107
sVobject_id
p3108
I4449903
sVrelationship_id
p3109
I4743545
sa(dp3110
Vsynsets
p3111
(lp3112
sVsubject_id
p3113
I4449904
sVpredicate
p3114
VWEARING
p3115
sVobject_id
p3116
I4449905
sVrelationship_id
p3117
I4743546
sa(dp3118
Vsynsets
p3119
(lp3120
sVsubject_id
p3121
I4449906
sVpredicate
p3122
VON
p3123
sVobject_id
p3124
I4449907
sVrelationship_id
p3125
I4743547
sa(dp3126
Vsynsets
p3127
(lp3128
sVsubject_id
p3129
I4449910
sVpredicate
p3130
VON
p3131
sVobject_id
p3132
I4449911
sVrelationship_id
p3133
I4743548
sa(dp3134
Vsynsets
p3135
(lp3136
sVsubject_id
p3137
I4449913
sVpredicate
p3138
VOF
p3139
sVobject_id
p3140
I4449914
sVrelationship_id
p3141
I4743549
sa(dp3142
Vsynsets
p3143
(lp3144
sVsubject_id
p3145
I4449915
sVpredicate
p3146
VIN
p3147
sVobject_id
p3148
I4449916
sVrelationship_id
p3149
I4743550
sa(dp3150
Vsynsets
p3151
(lp3152
sVsubject_id
p3153
I4449917
sVpredicate
p3154
VOF
p3155
sVobject_id
p3156
I4449918
sVrelationship_id
p3157
I4743551
sa(dp3158
Vsynsets
p3159
(lp3160
sVsubject_id
p3161
I4449918
sVpredicate
p3162
VIN
p3163
sVobject_id
p3164
I4449920
sVrelationship_id
p3165
I4743552
sa(dp3166
Vsynsets
p3167
(lp3168
sVsubject_id
p3169
I4449921
sVpredicate
p3170
VOF
p3171
sVobject_id
p3172
I4449922
sVrelationship_id
p3173
I4743553
sa(dp3174
Vsynsets
p3175
(lp3176
sVsubject_id
p3177
I4449923
sVpredicate
p3178
VOF
p3179
sVobject_id
p3180
I4449924
sVrelationship_id
p3181
I4743554
sa(dp3182
Vsynsets
p3183
(lp3184
sVsubject_id
p3185
I4293267
sVpredicate
p3186
VIN
p3187
sVobject_id
p3188
I4293270
sVrelationship_id
p3189
I4679254
sa(dp3190
Vsynsets
p3191
(lp3192
sVsubject_id
p3193
I4293269
sVpredicate
p3194
VIN
p3195
sVobject_id
p3196
I4293270
sVrelationship_id
p3197
I4679255
sa(dp3198
Vsynsets
p3199
(lp3200
sVsubject_id
p3201
I4293271
sVpredicate
p3202
VON
p3203
sVobject_id
p3204
I4293272
sVrelationship_id
p3205
I4679256
sa(dp3206
Vsynsets
p3207
(lp3208
sVsubject_id
p3209
I4293273
sVpredicate
p3210
Vhanging over
p3211
sVobject_id
p3212
I4293274
sVrelationship_id
p3213
I4679257
sasVimage_id
p3214
I1592702
sVobjects
p3215
(lp3216
(dp3217
Vh
p3218
I253
sVobject_id
p3219
I4449887
sVsynsets
p3220
(lp3221
sVw
p3222
I320
sVx
p3223
I503
sVy
p3224
I437
sVattributes
p3225
(lp3226
Vstreet bus
p3227
asVnames
p3228
(lp3229
Vsign
p3230
asa(dp3231
Vh
p3232
I229
sVobject_id
p3233
I4449888
sVsynsets
p3234
(lp3235
sVw
p3236
I65
sVy
p3237
I446
sVx
p3238
I235
sVnames
p3239
(lp3240
Vperson
p3241
asa(dp3242
Vh
p3243
I230
sVobject_id
p3244
I4449889
sVsynsets
p3245
(lp3246
sVw
p3247
I733
sVy
p3248
I538
sVx
p3249
I291
sVnames
p3250
(lp3251
Vstreet
p3252
asa(dp3253
Vh
p3254
I52
sVobject_id
p3255
I4449890
sVsynsets
p3256
(lp3257
sVw
p3258
I61
sVx
p3259
I167
sVy
p3260
I314
sVattributes
p3261
(lp3262
Vblue
p3263
aVparking sign
p3264
asVnames
p3265
(lp3266
Vsign
p3267
asa(dp3268
Vh
p3269
I37
sVobject_id
p3270
I4449891
sVsynsets
p3271
(lp3272
sVw
p3273
I40
sVx
p3274
I164
sVy
p3275
I317
sVattributes
p3276
(lp3277
Vwhite
p3278
asVnames
p3279
(lp3280
Vwording
p3281
asa(dp3282
Vh
p3283
I42
sVobject_id
p3284
I4449892
sVsynsets
p3285
(lp3286
sVw
p3287
I37
sVx
p3288
I519
sVy
p3289
I21
sVattributes
p3290
(lp3291
Vred
p3292
aVtraffic sign
p3293
aVdirectional sign
p3294
asVnames
p3295
(lp3296
Vsign
p3297
asa(dp3298
Vh
p3299
I647
sVobject_id
p3300
I4449893
sVsynsets
p3301
(lp3302
sVw
p3303
I485
sVy
p3304
I10
sVx
p3305
I26
sVnames
p3306
(lp3307
Vright
p3308
asa(dp3309
Vh
p3310
I61
sVobject_id
p3311
I4449894
sVsynsets
p3312
(lp3313
sVw
p3314
I147
sVx
p3315
I665
sVy
p3316
I111
sVattributes
p3317
(lp3318
Vstreet sign
p3319
aVname sign
p3320
aVsteel
p3321
asVnames
p3322
(lp3323
Vsign
p3324
asa(dp3325
Vh
p3326
I37
sVobject_id
p3327
I4449895
sVsynsets
p3328
(lp3329
sVw
p3330
I282
sVx
p3331
I566
sVy
p3332
I55
sVattributes
p3333
(lp3334
Voverhead
p3335
asVnames
p3336
(lp3337
Vbeam
p3338
asa(dp3339
Vh
p3340
I53
sVobject_id
p3341
I4449896
sVsynsets
p3342
(lp3343
sVw
p3344
I31
sVx
p3345
I780
sVy
p3346
I634
sVattributes
p3347
(lp3348
Vrear
p3349
aVcar tire
p3350
asVnames
p3351
(lp3352
Vtire
p3353
asa(dp3354
Vh
p3355
I91
sVobject_id
p3356
I4449897
sVsynsets
p3357
(lp3358
sVw
p3359
I152
sVx
p3360
I793
sVy
p3361
I673
sVattributes
p3362
(lp3363
Vwhite
p3364
asVnames
p3365
(lp3366
Vline
p3367
asa(dp3368
Vh
p3369
I42
sVobject_id
p3370
I4449898
sVsynsets
p3371
(lp3372
sVw
p3373
I80
sVx
p3374
I639
sVy
p3375
I565
sVattributes
p3376
(lp3377
Vlicense
p3378
asVnames
p3379
(lp3380
Vplate
p3381
asa(dp3382
Vh
p3383
I249
sVobject_id
p3384
I4449899
sVsynsets
p3385
(lp3386
sVw
p3387
I277
sVy
p3388
I440
sVx
p3389
I531
sVnames
p3390
(lp3391
Vvan
p3392
asa(dp3393
Vh
p3394
I122
sVobject_id
p3395
I4449900
sVsynsets
p3396
(lp3397
sVw
p3398
I117
sVx
p3399
I404
sVy
p3400
I463
sVattributes
p3401
(lp3402
Vlicense plate
p3403
asVnames
p3404
(lp3405
Vcar
p3406
asa(dp3407
Vh
p3408
I13
sVobject_id
p3409
I4449901
sVsynsets
p3410
(lp3411
sVw
p3412
I35
sVy
p3413
I550
sVx
p3414
I460
sVnames
p3415
(lp3416
Vplate
p3417
asa(dp3418
Vh
p3419
I221
sVobject_id
p3420
I4449902
sVsynsets
p3421
(lp3422
sVw
p3423
I52
sVy
p3424
I455
sVx
p3425
I238
sVnames
p3426
(lp3427
Vman
p3428
asa(dp3429
Vh
p3430
I85
sVobject_id
p3431
I4449903
sVsynsets
p3432
(lp3433
sVw
p3434
I44
sVx
p3435
I238
sVy
p3436
I483
sVattributes
p3437
(lp3438
Vred
p3439
asVnames
p3440
(lp3441
Vshirt
p3442
asa(dp3443
Vh
p3444
I242
sVobject_id
p3445
I4449904
sVsynsets
p3446
(lp3447
sVw
p3448
I61
sVy
p3449
I436
sVx
p3450
I235
sVnames
p3451
(lp3452
Vman
p3453
asa(dp3454
Vh
p3455
I119
sVobject_id
p3456
I4449905
sVsynsets
p3457
(lp3458
sVw
p3459
I33
sVx
p3460
I242
sVy
p3461
I539
sVattributes
p3462
(lp3463
Vblue
p3464
asVnames
p3465
(lp3466
Vjeans
p3467
asa(dp3468
Vh
p3469
I59
sVobject_id
p3470
I4449906
sVsynsets
p3471
(lp3472
sVw
p3473
I72
sVx
p3474
I154
sVy
p3475
I312
sVattributes
p3476
(lp3477
Vblue
p3478
aVwhite
p3479
asVnames
p3480
(lp3481
Vsign
p3482
asa(dp3483
Vh
p3484
I301
sVobject_id
p3485
I4449907
sVsynsets
p3486
(lp3487
sVw
p3488
I57
sVy
p3489
I366
sVx
p3490
I167
sVnames
p3491
(lp3492
Vpole
p3493
asa(dp3494
Vh
p3495
I24
sVobject_id
p3496
I4449908
sVsynsets
p3497
(lp3498
sVw
p3499
I33
sVx
p3500
I519
sVy
p3501
I371
sVattributes
p3502
(lp3503
Vwhite
p3504
aVgreen
p3505
aVstreet sign
p3506
asVnames
p3507
(lp3508
Vsign
p3509
asa(dp3510
Vh
p3511
I22
sVobject_id
p3512
I4449909
sVsynsets
p3513
(lp3514
sVw
p3515
I46
sVx
p3516
I374
sVy
p3517
I366
sVattributes
p3518
(lp3519
Vgreen
p3520
aVwhite
p3521
aVstreet sign
p3522
asVnames
p3523
(lp3524
Vsign
p3525
asa(dp3526
Vh
p3527
I78
sVobject_id
p3528
I4449910
sVsynsets
p3529
(lp3530
sVw
p3531
I39
sVx
p3532
I854
sVy
p3533
I288
sVattributes
p3534
(lp3535
Vblue
p3536
asVnames
p3537
(lp3538
Vbanner
p3539
asa(dp3540
Vh
p3541
I191
sVobject_id
p3542
I4449911
sVsynsets
p3543
(lp3544
sVw
p3545
I29
sVy
p3546
I347
sVx
p3547
I886
sVnames
p3548
(lp3549
Vpole
p3550
asa(dp3551
Vh
p3552
I52
sVobject_id
p3553
I4449912
sVsynsets
p3554
(lp3555
sVw
p3556
I147
sVx
p3557
I665
sVy
p3558
I118
sVattributes
p3559
(lp3560
Vgreen
p3561
aVwhite
p3562
asVnames
p3563
(lp3564
Vsign
p3565
asa(dp3566
Vh
p3567
I454
sVobject_id
p3568
I4449913
sVsynsets
p3569
(lp3570
sVw
p3571
I806
sVy
p3572
I3
sVx
p3573
I171
sVnames
p3574
(lp3575
Vview
p3576
asa(dp3577
Vh
p3578
I182
sVobject_id
p3579
I4449914
sVsynsets
p3580
(lp3581
sVw
p3582
I135
sVy
p3583
I120
sVx
p3584
I378
sVnames
p3585
(lp3586
Vsky
p3587
asa(dp3588
Vh
p3589
I268
sVobject_id
p3590
I4449915
sVsynsets
p3591
(lp3592
sVw
p3593
I282
sVy
p3594
I450
sVx
p3595
I527
sVnames
p3596
(lp3597
Vcar
p3598
asa(dp3599
Vh
p3600
I260
sVobject_id
p3601
I4449916
sVsynsets
p3602
(lp3603
sVw
p3604
I731
sVy
p3605
I504
sVx
p3606
I285
sVnames
p3607
(lp3608
Vroad
p3609
asa(dp3610
Vh
p3611
I415
sVobject_id
p3612
I4449917
sVsynsets
p3613
(lp3614
sVw
p3615
I281
sVy
p3616
I302
sVx
p3617
I238
sVnames
p3618
(lp3619
Vview
p3620
asa(dp3621
Vh
p3622
I232
sVobject_id
p3623
I4449918
sVsynsets
p3624
(lp3625
sVw
p3626
I53
sVy
p3627
I436
sVx
p3628
I235
sVnames
p3629
(lp3630
Vman
p3631
asa(dp3632
Vh
p3633
I229
sVobject_id
p3634
I4449920
sVsynsets
p3635
(lp3636
sVw
p3637
I742
sVy
p3638
I530
sVx
p3639
I275
sVnames
p3640
(lp3641
Vroad
p3642
asa(dp3643
Vh
p3644
I448
sVobject_id
p3645
I4449921
sVsynsets
p3646
(lp3647
sVw
p3648
I1009
sVy
p3649
I18
sVx
p3650
I7
sVnames
p3651
(lp3652
Vview
p3653
asa(dp3654
Vh
p3655
I208
sVobject_id
p3656
I4449922
sVsynsets
p3657
(lp3658
sVw
p3659
I450
sVy
p3660
I224
sVx
p3661
I568
sVnames
p3662
(lp3663
Vtrees
p3664
asa(dp3665
Vh
p3666
I117
sVobject_id
p3667
I4449923
sVsynsets
p3668
(lp3669
sVw
p3670
I353
sVy
p3671
I284
sVx
p3672
I302
sVnames
p3673
(lp3674
Vview
p3675
asa(dp3676
Vh
p3677
I40
sVobject_id
p3678
I4449924
sVsynsets
p3679
(lp3680
sVw
p3681
I245
sVx
p3682
I339
sVy
p3683
I338
sVattributes
p3684
(lp3685
Vtraffic signals
p3686
asVnames
p3687
(lp3688
Vsignals
p3689
asa(dp3690
Vh
p3691
I160
sVobject_id
p3692
I4306214
sVsynsets
p3693
(lp3694
sVw
p3695
I83
sVy
p3696
I13
sVx
p3697
I840
sVnames
p3698
(lp3699
Vstoplight
p3700
asa(dp3701
Vh
p3702
I275
sVobject_id
p3703
I4306726
sVsynsets
p3704
(lp3705
sVw
p3706
I327
sVx
p3707
I490
sVy
p3708
I436
sVattributes
p3709
(lp3710
Vgray
p3711
asVnames
p3712
(lp3713
Vvan
p3714
asa(dp3715
Vh
p3716
I240
sVobject_id
p3717
I4306975
sVsynsets
p3718
(lp3719
sVw
p3720
I169
sVx
p3721
I59
sVy
p3722
I85
sVattributes
p3723
(lp3724
Vyellow
p3725
aVstreet
p3726
asVnames
p3727
(lp3728
Vsign
p3729
asa(dp3730
Vh
p3731
I121
sVobject_id
p3732
I4307036
sVsynsets
p3733
(lp3734
sVw
p3735
I160
sVy
p3736
I258
sVx
p3737
I796
sVnames
p3738
(lp3739
Vflag
p3740
asa(dp3741
Vh
p3742
I400
sVobject_id
p3743
I4366075
sVsynsets
p3744
(lp3745
sVw
p3746
I716
sVx
p3747
I275
sVy
p3748
I5
sVattributes
p3749
(lp3750
Vwhite
p3751
asVnames
p3752
(lp3753
Vsky
p3754
asa(dp3755
Vh
p3756
I363
sVobject_id
p3757
I4293264
sVsynsets
p3758
(lp3759
sVw
p3760
I161
sVx
p3761
I703
sVy
p3762
I156
sVattributes
p3763
(lp3764
Vone
p3765
asVnames
p3766
(lp3767
Vtree
p3768
asa(dp3769
Vh
p3770
I729
sVobject_id
p3771
I4293270
sVsynsets
p3772
(lp3773
sVw
p3774
I968
sVy
p3775
I26
sVx
p3776
I25
sVnames
p3777
(lp3778
Vcity
p3779
asa(dp3780
Vh
p3781
I175
sVobject_id
p3782
I4293266
sVsynsets
p3783
(lp3784
sVw
p3785
I121
sVy
p3786
I169
sVx
p3787
I866
sVnames
p3788
(lp3789
Vtree
p3790
asa(dp3791
Vh
p3792
I85
sVobject_id
p3793
I4293267
sVsynsets
p3794
(lp3795
sVw
p3796
I113
sVy
p3797
I195
sVx
p3798
I866
sVnames
p3799
(lp3800
Vtree
p3801
asa(dp3802
Vh
p3803
I121
sVobject_id
p3804
I4293269
sVsynsets
p3805
(lp3806
sVw
p3807
I57
sVy
p3808
I160
sVx
p3809
I935
sVnames
p3810
(lp3811
Vtree
p3812
asa(dp3813
Vh
p3814
I297
sVobject_id
p3815
I4293271
sVsynsets
p3816
(lp3817
sVw
p3818
I450
sVy
p3819
I392
sVx
p3820
I408
sVnames
p3821
(lp3822
Vvehicles
p3823
asa(dp3824
Vh
p3825
I122
sVobject_id
p3826
I4293272
sVsynsets
p3827
(lp3828
sVw
p3829
I63
sVy
p3830
I608
sVx
p3831
I425
sVnames
p3832
(lp3833
Vroad
p3834
asa(dp3835
Vh
p3836
I87
sVobject_id
p3837
I4293273
sVsynsets
p3838
(lp3839
sVw
p3840
I282
sVx
p3841
I328
sVy
p3842
I305
sVattributes
p3843
(lp3844
Vtraffic
p3845
asVnames
p3846
(lp3847
Vlights
p3848
asa(dp3849
Vh
p3850
I59
sVobject_id
p3851
I4293274
sVsynsets
p3852
(lp3853
sVw
p3854
I100
sVy
p3855
I575
sVx
p3856
I358
sVnames
p3857
(lp3858
Vroad
p3859
asa(dp3860
Vh
p3861
I67
sVobject_id
p3862
I4293275
sVsynsets
p3863
(lp3864
sVw
p3865
I70
sVx
p3866
I153
sVy
p3867
I309
sVattributes
p3868
(lp3869
Vparking
p3870
aVblue
p3871
aVwhite
p3872
asVnames
p3873
(lp3874
Vsign
p3875
asassVimage_name
p3876
V1592702.jpg
p3877
sa(dp3878
Vlabels
p3879
(dp3880
Vrelationships
p3881
(lp3882
(dp3883
Vsynsets
p3884
(lp3885
sVsubject_id
p3886
I989594
sVpredicate
p3887
Vof a
p3888
sVobject_id
p3889
I989595
sVrelationship_id
p3890
I2955402
sa(dp3891
Vsynsets
p3892
(lp3893
Vstate.v.01
p3894
asVsubject_id
p3895
I989607
sVpredicate
p3896
Vsays
p3897
sVobject_id
p3898
I989608
sVrelationship_id
p3899
I2955403
sa(dp3900
Vsynsets
p3901
(lp3902
Valong.r.01
p3903
asVsubject_id
p3904
I989612
sVpredicate
p3905
VON
p3906
sVobject_id
p3907
I989603
sVrelationship_id
p3908
I2955404
sa(dp3909
Vsynsets
p3910
(lp3911
Valong.r.01
p3912
asVsubject_id
p3913
I989612
sVpredicate
p3914
VON
p3915
sVobject_id
p3916
I989603
sVrelationship_id
p3917
I2955405
sa(dp3918
Vsynsets
p3919
(lp3920
Valong.r.01
p3921
asVsubject_id
p3922
I989613
sVpredicate
p3923
VON
p3924
sVobject_id
p3925
I989603
sVrelationship_id
p3926
I2955406
sa(dp3927
Vsynsets
p3928
(lp3929
Valong.r.01
p3930
asVsubject_id
p3931
I989614
sVpredicate
p3932
VON
p3933
sVobject_id
p3934
I989603
sVrelationship_id
p3935
I2955407
sa(dp3936
Vsynsets
p3937
(lp3938
Valong.r.01
p3939
asVsubject_id
p3940
I989613
sVpredicate
p3941
VON
p3942
sVobject_id
p3943
I989603
sVrelationship_id
p3944
I2955408
sa(dp3945
Vsynsets
p3946
(lp3947
Valong.r.01
p3948
asVsubject_id
p3949
I989615
sVpredicate
p3950
VON
p3951
sVobject_id
p3952
I989603
sVrelationship_id
p3953
I2955409
sa(dp3954
Vsynsets
p3955
(lp3956
Valong.r.01
p3957
asVsubject_id
p3958
I989615
sVpredicate
p3959
VON
p3960
sVobject_id
p3961
I989603
sVrelationship_id
p3962
I2955410
sa(dp3963
Vsynsets
p3964
(lp3965
Valong.r.01
p3966
asVsubject_id
p3967
I989614
sVpredicate
p3968
VON
p3969
sVobject_id
p3970
I989603
sVrelationship_id
p3971
I2955411
sasVimage_id
p3972
I2323358
sVobjects
p3973
(lp3974
(dp3975
Vh
p3976
I110
sVobject_id
p3977
I989594
sVsynsets
p3978
(lp3979
Vedge.n.01
p3980
asVw
p3981
I19
sVy
p3982
I260
sVx
p3983
I171
sVnames
p3984
(lp3985
Vedge
p3986
asa(dp3987
Vh
p3988
I113
sVobject_id
p3989
I989595
sVsynsets
p3990
(lp3991
Vbuilding.n.01
p3992
asVw
p3993
I201
sVx
p3994
I78
sVy
p3995
I259
sVattributes
p3996
(lp3997
Vbrick
p3998
aVred
p3999
asVnames
p4000
(lp4001
Vbuilding
p4002
asa(dp4003
Vh
p4004
I323
sVobject_id
p4005
I989596
sVsynsets
p4006
(lp4007
Vsky.n.01
p4008
asVw
p4009
I495
sVx
p4010
I4
sVy
p4011
I0
sVattributes
p4012
(lp4013
Vblue
p4014
asVnames
p4015
(lp4016
Vsky
p4017
asa(dp4018
Vh
p4019
I24
sVobject_id
p4020
I989597
sVsynsets
p4021
(lp4022
Vroad.n.01
p4023
asVw
p4024
I277
sVx
p4025
I174
sVy
p4026
I350
sVattributes
p4027
(lp4028
Vgrey
p4029
asVnames
p4030
(lp4031
Vroad
p4032
asa(dp4033
Vh
p4034
I104
sVobject_id
p4035
I989598
sVsynsets
p4036
(lp4037
Vsign.n.02
p4038
asVw
p4039
I94
sVx
p4040
I180
sVy
p4041
I179
sVattributes
p4042
(lp4043
Vwhite
p4044
aVred
p4045
asVnames
p4046
(lp4047
Vsign
p4048
asa(dp4049
Vh
p4050
I35
sVobject_id
p4051
I989599
sVsynsets
p4052
(lp4053
Vtruck.n.01
p4054
asVw
p4055
I86
sVx
p4056
I228
sVy
p4057
I334
sVattributes
p4058
(lp4059
Vparked
p4060
aVwhite
p4061
asVnames
p4062
(lp4063
Vtruck
p4064
asa(dp4065
Vh
p4066
I276
sVobject_id
p4067
I989600
sVsynsets
p4068
(lp4069
Vpole.n.01
p4070
asVw
p4071
I97
sVx
p4072
I390
sVy
p4073
I98
sVattributes
p4074
(lp4075
Vblack
p4076
aVtall
p4077
asVnames
p4078
(lp4079
Vlight pole
p4080
asa(dp4081
Vh
p4082
I83
sVobject_id
p4083
I989601
sVsynsets
p4084
(lp4085
Vshop.n.01
p4086
asVw
p4087
I89
sVx
p4088
I3
sVy
p4089
I288
sVattributes
p4090
(lp4091
Vwhite
p4092
asVnames
p4093
(lp4094
Vstore
p4095
asa(dp4096
Vh
p4097
I27
sVobject_id
p4098
I989602
sVsynsets
p4099
(lp4100
Vgummed_label.n.01
p4101
asVw
p4102
I41
sVx
p4103
I201
sVy
p4104
I243
sVattributes
p4105
(lp4106
Vblack
p4107
aVwhite
p4108
asVnames
p4109
(lp4110
Vsticker
p4111
asa(dp4112
Vh
p4113
I134
sVobject_id
p4114
I989604
sVsynsets
p4115
(lp4116
Vtree.n.01
p4117
asVw
p4118
I114
sVx
p4119
I384
sVy
p4120
I202
sVattributes
p4121
(lp4122
Vbrown
p4123
aVgreen
p4124
asVnames
p4125
(lp4126
Vtree
p4127
asa(dp4128
Vh
p4129
I19
sVobject_id
p4130
I989605
sVsynsets
p4131
(lp4132
Vvehicle.n.01
p4133
asVw
p4134
I13
sVx
p4135
I308
sVy
p4136
I343
sVattributes
p4137
(lp4138
Vwhite
p4139
asVnames
p4140
(lp4141
Vvehicle
p4142
asa(dp4143
Vh
p4144
I56
sVobject_id
p4145
I989606
sVsynsets
p4146
(lp4147
Vpost.n.01
p4148
asVw
p4149
I20
sVx
p4150
I329
sVy
p4151
I283
sVattributes
p4152
(lp4153
Vbrown
p4154
asVnames
p4155
(lp4156
Vpost
p4157
asa(dp4158
Vh
p4159
I48
sVobject_id
p4160
I989607
sVsynsets
p4161
(lp4162
Vsign.n.02
p4163
asVw
p4164
I48
sVy
p4165
I110
sVx
p4166
I196
sVnames
p4167
(lp4168
Vsign
p4169
asa(dp4170
Vh
p4171
I35
sVobject_id
p4172
I989608
sVsynsets
p4173
(lp4174
Vmedina.n.01
p4175
asVw
p4176
I30
sVy
p4177
I118
sVx
p4178
I207
sVnames
p4179
(lp4180
Vmedina
p4181
asa(dp4182
Vh
p4183
I112
sVobject_id
p4184
I989609
sVsynsets
p4185
(lp4186
Vtree.n.01
p4187
asVw
p4188
I63
sVx
p4189
I0
sVy
p4190
I227
sVattributes
p4191
(lp4192
Vlarge
p4193
asVnames
p4194
(lp4195
Vtree
p4196
asa(dp4197
Vh
p4198
I43
sVobject_id
p4199
I989603
sVsynsets
p4200
(lp4201
Vsign.n.02
p4202
asVw
p4203
I73
sVx
p4204
I190
sVy
p4205
I148
sVattributes
p4206
(lp4207
Vgreen
p4208
aVwhite
p4209
asVnames
p4210
(lp4211
Vsign
p4212
asa(dp4213
Vh
p4214
I26
sVobject_id
p4215
I989610
sVsynsets
p4216
(lp4217
Vsport_utility.n.01
p4218
asVw
p4219
I21
sVx
p4220
I3
sVy
p4221
I348
sVattributes
p4222
(lp4223
Vwhite
p4224
asVnames
p4225
(lp4226
Vsuv
p4227
asa(dp4228
Vh
p4229
I35
sVobject_id
p4230
I989611
sVsynsets
p4231
(lp4232
Vfence.n.01
p4233
asVw
p4234
I80
sVx
p4235
I419
sVy
p4236
I324
sVattributes
p4237
(lp4238
Vgreen
p4239
asVnames
p4240
(lp4241
Vfence
p4242
asa(dp4243
Vh
p4244
I21
sVobject_id
p4245
I989612
sVsynsets
p4246
(lp4247
Vletter.n.01
p4248
asVw
p4249
I10
sVx
p4250
I217
sVy
p4251
I160
sVattributes
p4252
(lp4253
Vwhite
p4254
asVnames
p4255
(lp4256
Vletter
p4257
asa(dp4258
Vh
p4259
I13
sVobject_id
p4260
I989613
sVsynsets
p4261
(lp4262
Vletter.n.01
p4263
asVw
p4264
I8
sVx
p4265
I245
sVy
p4266
I153
sVattributes
p4267
(lp4268
Vwhite
p4269
asVnames
p4270
(lp4271
Vletter
p4272
asa(dp4273
Vh
p4274
I14
sVobject_id
p4275
I989614
sVsynsets
p4276
(lp4277
Vletter.n.01
p4278
asVw
p4279
I10
sVx
p4280
I249
sVy
p4281
I149
sVattributes
p4282
(lp4283
Vwhite
p4284
asVnames
p4285
(lp4286
Vletter
p4287
asa(dp4288
Vh
p4289
I15
sVobject_id
p4290
I989615
sVsynsets
p4291
(lp4292
Vletter.n.01
p4293
asVw
p4294
I8
sVx
p4295
I196
sVy
p4296
I168
sVattributes
p4297
(lp4298
Vwhite
p4299
asVnames
p4300
(lp4301
Vletter
p4302
asassVimage_name
p4303
V2323358.jpg
p4304
sa(dp4305
Vlabels
p4306
(dp4307
Vrelationships
p4308
(lp4309
(dp4310
Vsynsets
p4311
(lp4312
Vbe.v.01
p4313
asVsubject_id
p4314
I1011312
sVpredicate
p4315
VIN
p4316
sVobject_id
p4317
I1011313
sVrelationship_id
p4318
I3019755
sa(dp4319
Vsynsets
p4320
(lp4321
Vbe.v.01
p4322
asVsubject_id
p4323
I1011312
sVpredicate
p4324
Vholding
p4325
sVobject_id
p4326
I1011314
sVrelationship_id
p4327
I3019756
sa(dp4328
Vsynsets
p4329
(lp4330
Vbe.v.01
p4331
asVsubject_id
p4332
I1011312
sVpredicate
p4333
Vthrowing a
p4334
sVobject_id
p4335
I1011314
sVrelationship_id
p4336
I3019757
sa(dp4337
Vsynsets
p4338
(lp4339
Vbe.v.01
p4340
asVsubject_id
p4341
I1011312
sVpredicate
p4342
Vholding
p4343
sVobject_id
p4344
I1011314
sVrelationship_id
p4345
I3019758
sa(dp4346
Vsynsets
p4347
(lp4348
Vbe.v.01
p4349
asVsubject_id
p4350
I1011314
sVpredicate
p4351
VIN
p4352
sVobject_id
p4353
I1011315
sVrelationship_id
p4354
I3019759
sa(dp4355
Vsynsets
p4356
(lp4357
Vbe.v.01
p4358
asVsubject_id
p4359
I1011312
sVpredicate
p4360
Vholding
p4361
sVobject_id
p4362
I1011316
sVrelationship_id
p4363
I3019760
sa(dp4364
Vsynsets
p4365
(lp4366
Vbe.v.01
p4367
asVsubject_id
p4368
I1011316
sVpredicate
p4369
VIN
p4370
sVobject_id
p4371
I1011317
sVrelationship_id
p4372
I3019761
sa(dp4373
Vsynsets
p4374
(lp4375
Vbe.v.01
p4376
asVsubject_id
p4377
I1011312
sVpredicate
p4378
Vwearing a
p4379
sVobject_id
p4380
I1011318
sVrelationship_id
p4381
I3019762
sa(dp4382
Vsynsets
p4383
(lp4384
Vbe.v.01
p4385
asVsubject_id
p4386
I1011312
sVpredicate
p4387
VWEARING
p4388
sVobject_id
p4389
I1011319
sVrelationship_id
p4390
I3019763
sa(dp4391
Vsynsets
p4392
(lp4393
Vbe.v.01
p4394
asVsubject_id
p4395
I1011321
sVpredicate
p4396
Vare over
p4397
sVobject_id
p4398
I1011320
sVrelationship_id
p4399
I3019764
sa(dp4400
Vsynsets
p4401
(lp4402
Vbe.v.01
p4403
asVsubject_id
p4404
I1011314
sVpredicate
p4405
VIN
p4406
sVobject_id
p4407
I1011315
sVrelationship_id
p4408
I3019765
sa(dp4409
Vsynsets
p4410
(lp4411
Vbe.v.01
p4412
asVsubject_id
p4413
I1011312
sVpredicate
p4414
VWEARING
p4415
sVobject_id
p4416
I1011322
sVrelationship_id
p4417
I3019766
sa(dp4418
Vsynsets
p4419
(lp4420
Vbe.v.01
p4421
asVsubject_id
p4422
I1011323
sVpredicate
p4423
Vare in
p4424
sVobject_id
p4425
I1011313
sVrelationship_id
p4426
I3019767
sa(dp4427
Vsynsets
p4428
(lp4429
Vbe.v.01
p4430
asVsubject_id
p4431
I1011325
sVpredicate
p4432
Vare on
p4433
sVobject_id
p4434
I1011326
sVrelationship_id
p4435
I3019768
sa(dp4436
Vsynsets
p4437
(lp4438
Vbe.v.01
p4439
asVsubject_id
p4440
I1011327
sVpredicate
p4441
Vare on
p4442
sVobject_id
p4443
I1011325
sVrelationship_id
p4444
I3019769
sa(dp4445
Vsynsets
p4446
(lp4447
Vbe.v.01
p4448
asVsubject_id
p4449
I1011328
sVpredicate
p4450
VON
p4451
sVobject_id
p4452
I1011316
sVrelationship_id
p4453
I3019770
sa(dp4454
Vsynsets
p4455
(lp4456
sVsubject_id
p4457
I3948295
sVpredicate
p4458
VOF
p4459
sVobject_id
p4460
I3948294
sVrelationship_id
p4461
I4502063
sa(dp4462
Vsynsets
p4463
(lp4464
sVsubject_id
p4465
I3948296
sVpredicate
p4466
VOF
p4467
sVobject_id
p4468
I3948297
sVrelationship_id
p4469
I4502064
sa(dp4470
Vsynsets
p4471
(lp4472
sVsubject_id
p4473
I3948298
sVpredicate
p4474
VOF
p4475
sVobject_id
p4476
I1011321
sVrelationship_id
p4477
I4502065
sa(dp4478
Vsynsets
p4479
(lp4480
sVsubject_id
p4481
I3948299
sVpredicate
p4482
VOF
p4483
sVobject_id
p4484
I3948300
sVrelationship_id
p4485
I4502066
sa(dp4486
Vsynsets
p4487
(lp4488
sVsubject_id
p4489
I3948301
sVpredicate
p4490
VOF
p4491
sVobject_id
p4492
I3948302
sVrelationship_id
p4493
I4502067
sa(dp4494
Vsynsets
p4495
(lp4496
sVsubject_id
p4497
I3948303
sVpredicate
p4498
VOF
p4499
sVobject_id
p4500
I1011329
sVrelationship_id
p4501
I4502068
sa(dp4502
Vsynsets
p4503
(lp4504
sVsubject_id
p4505
I3948304
sVpredicate
p4506
VOF
p4507
sVobject_id
p4508
I3948305
sVrelationship_id
p4509
I4502069
sa(dp4510
Vsynsets
p4511
(lp4512
Vbe.v.01
p4513
asVsubject_id
p4514
I1011312
sVpredicate
p4515
Vholding
p4516
sVobject_id
p4517
I1011314
sVrelationship_id
p4518
I3019771
sa(dp4519
Vsynsets
p4520
(lp4521
sVsubject_id
p4522
I1011331
sVpredicate
p4523
VON
p4524
sVobject_id
p4525
I3948306
sVrelationship_id
p4526
I4502070
sa(dp4527
Vsynsets
p4528
(lp4529
Vbe.v.01
p4530
asVsubject_id
p4531
I1011328
sVpredicate
p4532
VON
p4533
sVobject_id
p4534
I1011316
sVrelationship_id
p4535
I3019772
sa(dp4536
Vsynsets
p4537
(lp4538
Vbe.v.01
p4539
asVsubject_id
p4540
I1011327
sVpredicate
p4541
Vare on
p4542
sVobject_id
p4543
I1011325
sVrelationship_id
p4544
I3019773
sa(dp4545
Vsynsets
p4546
(lp4547
Vbe.v.01
p4548
asVsubject_id
p4549
I1011312
sVpredicate
p4550
Vholding
p4551
sVobject_id
p4552
I1011314
sVrelationship_id
p4553
I3019774
sa(dp4554
Vsynsets
p4555
(lp4556
Vbe.v.01
p4557
asVsubject_id
p4558
I1011317
sVpredicate
p4559
Vholding
p4560
sVobject_id
p4561
I1011316
sVrelationship_id
p4562
I3019775
sa(dp4563
Vsynsets
p4564
(lp4565
sVsubject_id
p4566
I3948307
sVpredicate
p4567
Vcovered by
p4568
sVobject_id
p4569
I1011313
sVrelationship_id
p4570
I4502071
sa(dp4571
Vsynsets
p4572
(lp4573
sVsubject_id
p4574
I1011326
sVpredicate
p4575
Vbeside
p4576
sVobject_id
p4577
I3948308
sVrelationship_id
p4578
I4502072
sa(dp4579
Vsynsets
p4580
(lp4581
sVsubject_id
p4582
I3948309
sVpredicate
p4583
Vcovered with
p4584
sVobject_id
p4585
I1011331
sVrelationship_id
p4586
I4502073
sasVimage_id
p4587
I2318376
sVobjects
p4588
(lp4589
(dp4590
Vh
p4591
I342
sVobject_id
p4592
I1011312
sVsynsets
p4593
(lp4594
Vwoman.n.01
p4595
asVw
p4596
I234
sVx
p4597
I13
sVy
p4598
I1
sVattributes
p4599
(lp4600
Vstanding
p4601
asVnames
p4602
(lp4603
Vwoman
p4604
asa(dp4605
Vh
p4606
I94
sVobject_id
p4607
I1011313
sVsynsets
p4608
(lp4609
Vsoil.n.02
p4610
asVw
p4611
I493
sVy
p4612
I251
sVx
p4613
I3
sVnames
p4614
(lp4615
Vdirt
p4616
asa(dp4617
Vh
p4618
I34
sVobject_id
p4619
I1011314
sVsynsets
p4620
(lp4621
Vfrisbee.n.01
p4622
asVw
p4623
I99
sVx
p4624
I190
sVy
p4625
I183
sVattributes
p4626
(lp4627
Vwhite
p4628
aVround
p4629
asVnames
p4630
(lp4631
Vfrisbee
p4632
asa(dp4633
Vh
p4634
I34
sVobject_id
p4635
I1011315
sVsynsets
p4636
(lp4637
Vhand.n.01
p4638
asVw
p4639
I60
sVy
p4640
I193
sVx
p4641
I195
sVnames
p4642
(lp4643
Vright hand
p4644
asa(dp4645
Vh
p4646
I62
sVobject_id
p4647
I1011316
sVsynsets
p4648
(lp4649
Vbottle.n.01
p4650
asVw
p4651
I62
sVx
p4652
I130
sVy
p4653
I194
sVattributes
p4654
(lp4655
Vwhite
p4656
aVplastic
p4657
asVnames
p4658
(lp4659
Vbottle
p4660
asa(dp4661
Vh
p4662
I40
sVobject_id
p4663
I1011317
sVsynsets
p4664
(lp4665
Vhand.n.01
p4666
asVw
p4667
I35
sVy
p4668
I212
sVx
p4669
I136
sVnames
p4670
(lp4671
Vleft hand
p4672
asa(dp4673
Vh
p4674
I180
sVobject_id
p4675
I1011318
sVsynsets
p4676
(lp4677
Vshirt.n.01
p4678
asVw
p4679
I169
sVx
p4680
I23
sVy
p4681
I59
sVattributes
p4682
(lp4683
Vwhite
p4684
aVshort sleeved
p4685
asVnames
p4686
(lp4687
Vshirt
p4688
asa(dp4689
Vh
p4690
I151
sVobject_id
p4691
I1011319
sVsynsets
p4692
(lp4693
Vtrouser.n.01
p4694
asVw
p4695
I159
sVx
p4696
I13
sVy
p4697
I193
sVattributes
p4698
(lp4699
Vblack
p4700
asVnames
p4701
(lp4702
Vpants
p4703
asa(dp4704
Vh
p4705
I99
sVobject_id
p4706
I1011320
sVsynsets
p4707
(lp4708
Vbasket.n.01
p4709
asVw
p4710
I212
sVx
p4711
I285
sVy
p4712
I245
sVattributes
p4713
(lp4714
Vmetal
p4715
asVnames
p4716
(lp4717
Vbasket
p4718
asa(dp4719
Vh
p4720
I206
sVobject_id
p4721
I1011321
sVsynsets
p4722
(lp4723
Vchain.n.01
p4724
asVw
p4725
I193
sVx
p4726
I301
sVy
p4727
I105
sVattributes
p4728
(lp4729
Vloose
p4730
aVvertical
p4731
aVmetal
p4732
aVhanging
p4733
aVgolden
p4734
asVnames
p4735
(lp4736
Vchains
p4737
asa(dp4738
Vh
p4739
I14
sVobject_id
p4740
I1011322
sVsynsets
p4741
(lp4742
Vearring.n.01
p4743
asVw
p4744
I15
sVx
p4745
I167
sVy
p4746
I62
sVattributes
p4747
(lp4748
Vround
p4749
aVdangling
p4750
asVnames
p4751
(lp4752
Vearring
p4753
asa(dp4754
Vh
p4755
I42
sVobject_id
p4756
I1011323
sVsynsets
p4757
(lp4758
Vweed.n.01
p4759
asVw
p4760
I61
sVx
p4761
I168
sVy
p4762
I272
sVattributes
p4763
(lp4764
Vgrowing
p4765
aVsparse
p4766
asVnames
p4767
(lp4768
Vweeds
p4769
asa(dp4770
Vh
p4771
I67
sVobject_id
p4772
I1011324
sVsynsets
p4773
(lp4774
Vhair.n.01
p4775
asVw
p4776
I93
sVx
p4777
I148
sVy
p4778
I2
sVattributes
p4779
(lp4780
Vshort
p4781
asVnames
p4782
(lp4783
Vhair
p4784
asa(dp4785
Vh
p4786
I75
sVobject_id
p4787
I1011325
sVsynsets
p4788
(lp4789
Vbranch.n.01
p4790
asVw
p4791
I87
sVy
p4792
I19
sVx
p4793
I10
sVnames
p4794
(lp4795
Vbranches
p4796
asa(dp4797
Vh
p4798
I294
sVobject_id
p4799
I1011326
sVsynsets
p4800
(lp4801
Vtree.n.01
p4802
asVw
p4803
I496
sVx
p4804
I3
sVy
p4805
I1
sVattributes
p4806
(lp4807
Vtall
p4808
aVgreen
p4809
asVnames
p4810
(lp4811
Vtree
p4812
asa(dp4813
Vh
p4814
I47
sVobject_id
p4815
I1011327
sVsynsets
p4816
(lp4817
Vleaf.n.01
p4818
asVw
p4819
I120
sVx
p4820
I38
sVy
p4821
I12
sVattributes
p4822
(lp4823
Vgreen
p4824
asVnames
p4825
(lp4826
Vleaves
p4827
asa(dp4828
Vh
p4829
I15
sVobject_id
p4830
I1011328
sVsynsets
p4831
(lp4832
sVw
p4833
I21
sVx
p4834
I170
sVy
p4835
I209
sVattributes
p4836
(lp4837
Vgreen
p4838
asVnames
p4839
(lp4840
Vtop
p4841
asa(dp4842
Vh
p4843
I84
sVobject_id
p4844
I3948294
sVsynsets
p4845
(lp4846
sVw
p4847
I105
sVy
p4848
I260
sVx
p4849
I173
sVnames
p4850
(lp4851
Vfloor
p4852
asa(dp4853
Vh
p4854
I49
sVobject_id
p4855
I3948295
sVsynsets
p4856
(lp4857
sVw
p4858
I33
sVy
p4859
I280
sVx
p4860
I220
sVnames
p4861
(lp4862
Vpart
p4863
asa(dp4864
Vh
p4865
I51
sVobject_id
p4866
I3948296
sVsynsets
p4867
(lp4868
sVw
p4869
I42
sVy
p4870
I275
sVx
p4871
I224
sVnames
p4872
(lp4873
Vpart
p4874
asa(dp4875
Vh
p4876
I90
sVobject_id
p4877
I3948297
sVsynsets
p4878
(lp4879
sVw
p4880
I120
sVy
p4881
I252
sVx
p4882
I158
sVnames
p4883
(lp4884
Vground
p4885
asa(dp4886
Vh
p4887
I26
sVobject_id
p4888
I3948298
sVsynsets
p4889
(lp4890
sVw
p4891
I30
sVy
p4892
I249
sVx
p4893
I367
sVnames
p4894
(lp4895
Vpart
p4896
asa(dp4897
Vh
p4898
I22
sVobject_id
p4899
I3948299
sVsynsets
p4900
(lp4901
sVw
p4902
I24
sVy
p4903
I307
sVx
p4904
I205
sVnames
p4905
(lp4906
Vpart
p4907
asa(dp4908
Vh
p4909
I74
sVobject_id
p4910
I3948300
sVsynsets
p4911
(lp4912
sVw
p4913
I98
sVy
p4914
I270
sVx
p4915
I180
sVnames
p4916
(lp4917
Vground
p4918
asa(dp4919
Vh
p4920
I38
sVobject_id
p4921
I3948301
sVsynsets
p4922
(lp4923
sVw
p4924
I16
sVy
p4925
I199
sVx
p4926
I218
sVnames
p4927
(lp4928
Vpart
p4929
asa(dp4930
Vh
p4931
I34
sVobject_id
p4932
I3948302
sVsynsets
p4933
(lp4934
sVw
p4935
I51
sVy
p4936
I190
sVx
p4937
I205
sVnames
p4938
(lp4939
Vhand
p4940
asa(dp4941
Vh
p4942
I33
sVobject_id
p4943
I1011329
sVsynsets
p4944
(lp4945
Vwrist.n.01
p4946
asVw
p4947
I23
sVy
p4948
I192
sVx
p4949
I202
sVnames
p4950
(lp4951
Vwrist
p4952
asa(dp4953
Vh
p4954
I51
sVobject_id
p4955
I3948303
sVsynsets
p4956
(lp4957
sVw
p4958
I29
sVy
p4959
I193
sVx
p4960
I198
sVnames
p4961
(lp4962
Vpart
p4963
asa(dp4964
Vh
p4965
I37
sVobject_id
p4966
I3948304
sVsynsets
p4967
(lp4968
sVw
p4969
I28
sVy
p4970
I232
sVx
p4971
I277
sVnames
p4972
(lp4973
Vpart
p4974
asa(dp4975
Vh
p4976
I73
sVobject_id
p4977
I3948305
sVsynsets
p4978
(lp4979
sVw
p4980
I164
sVy
p4981
I248
sVx
p4982
I217
sVnames
p4983
(lp4984
Vground
p4985
asa(dp4986
Vh
p4987
I160
sVobject_id
p4988
I1011330
sVsynsets
p4989
(lp4990
Vtrunk.n.01
p4991
asVw
p4992
I49
sVx
p4993
I148
sVy
p4994
I120
sVattributes
p4995
(lp4996
Vbrown
p4997
asVnames
p4998
(lp4999
Vtree trunk
p5000
asa(dp5001
Vh
p5002
I84
sVobject_id
p5003
I1011331
sVsynsets
p5004
(lp5005
Vgrass.n.01
p5006
asVw
p5007
I276
sVy
p5008
I139
sVx
p5009
I221
sVnames
p5010
(lp5011
Vgrass
p5012
asa(dp5013
Vh
p5014
I103
sVobject_id
p5015
I3948306
sVsynsets
p5016
(lp5017
sVw
p5018
I170
sVy
p5019
I143
sVx
p5020
I193
sVnames
p5021
(lp5022
Vfield
p5023
asa(dp5024
Vh
p5025
I71
sVobject_id
p5026
I3948307
sVsynsets
p5027
(lp5028
sVw
p5029
I82
sVy
p5030
I271
sVx
p5031
I184
sVnames
p5032
(lp5033
Vfloor
p5034
asa(dp5035
Vh
p5036
I337
sVobject_id
p5037
I3948308
sVsynsets
p5038
(lp5039
sVw
p5040
I474
sVy
p5041
I7
sVx
p5042
I10
sVnames
p5043
(lp5044
Vscene
p5045
asa(dp5046
Vh
p5047
I90
sVobject_id
p5048
I3948309
sVsynsets
p5049
(lp5050
sVw
p5051
I115
sVy
p5052
I167
sVx
p5053
I226
sVnames
p5054
(lp5055
Vfloor
p5056
asassVimage_name
p5057
V2318376.jpg
p5058
sasS'curr'
p5059
(lp5060
(dp5061
S'relationships'
p5062
(lp5063
(dp5064
S'predicate'
p5065
(S'of'
p5066
S'of a'
p5067
S'of an'
p5068
S'of the'
p5069
S'is of a'
p5070
S'are of'
p5071
S'are of a'
p5072
tp5073
sS'relationship_id'
p5074
I0
sS'object_id'
p5075
I1
sS'subject_id'
p5076
I1
sa(dp5077
g5065
(S'above'
p5078
S'above a'
p5079
S'are above'
p5080
S'above the'
p5081
S'are above a'
p5082
S'above an'
p5083
S'is above'
p5084
tp5085
sg5074
I1
sg5075
I18
sg5076
I1
sa(dp5086
g5065
(S'in front of'
p5087
S'are in front of'
p5088
S'in front of a'
p5089
S'in front of the'
p5090
S'is in front of'
p5091
S'in front of an'
p5092
S'are in front of a'
p5093
tp5094
sg5074
I2
sg5075
I10
sg5076
I1
sa(dp5095
g5065
g5094
sg5074
I3
sg5075
I10
sg5076
I1
sa(dp5096
g5065
(S'front'
p5097
S'front a'
p5098
tp5099
sg5074
I4
sg5075
I10
sg5076
I2
sa(dp5100
g5065
g5099
sg5074
I5
sg5075
I10
sg5076
I2
sa(dp5101
g5065
g5099
sg5074
I6
sg5075
I10
sg5076
I3
sa(dp5102
g5065
(S'on'
p5103
S'are on'
p5104
S'on a'
p5105
S'are on a'
p5106
S'on the'
p5107
S'on an'
p5108
S'is on'
p5109
S'is on a'
p5110
S'is on the'
p5111
S'are on an'
p5112
S'are on the'
p5113
S'on a a'
p5114
S'on are'
p5115
tp5116
sg5074
I7
sg5075
I18
sg5076
I3
sa(dp5117
g5065
g5116
sg5074
I8
sg5075
I18
sg5076
I3
sa(dp5118
g5065
(S'behind'
p5119
S'are behind'
p5120
S'behind a'
p5121
S'behind the'
p5122
S'behind an'
p5123
S'are behind a'
p5124
S'is behind'
p5125
S'is behind the'
p5126
tp5127
sg5074
I9
sg5075
I18
sg5076
I4
sa(dp5128
g5065
(S'by'
p5129
S'are by'
p5130
S'by a'
p5131
S'by the'
p5132
S'by an'
p5133
S'are by a'
p5134
S'is by'
p5135
tp5136
sg5074
I10
sg5075
I10
sg5076
I4
sa(dp5137
g5065
g5136
sg5074
I11
sg5075
I10
sg5076
I4
sa(dp5138
g5065
g5136
sg5074
I12
sg5075
I10
sg5076
I5
sa(dp5139
g5065
g5127
sg5074
I13
sg5075
I18
sg5076
I5
sa(dp5140
g5065
g5127
sg5074
I14
sg5075
I18
sg5076
I5
sa(dp5141
g5065
g5085
sg5074
I15
sg5075
I10
sg5076
I7
sa(dp5142
g5065
g5085
sg5074
I16
sg5075
I10
sg5076
I7
sa(dp5143
g5065
g5127
sg5074
I17
sg5075
I18
sg5076
I9
sa(dp5144
g5065
g5127
sg5074
I18
sg5075
I18
sg5076
I9
sa(dp5145
g5065
g5136
sg5074
I19
sg5075
I10
sg5076
I9
sa(dp5146
g5065
g5136
sg5074
I20
sg5075
I10
sg5076
I9
sa(dp5147
g5065
g5136
sg5074
I21
sg5075
I10
sg5076
I10
sa(dp5148
g5065
(S'with'
p5149
S'with a'
p5150
S'with an'
p5151
S'are with'
p5152
S'with a a'
p5153
S'with the'
p5154
S'is with the'
p5155
S'are with a'
p5156
tp5157
sg5074
I22
sg5075
I15
sg5076
I11
sa(dp5158
g5065
g5094
sg5074
I23
sg5075
I18
sg5076
I11
sa(dp5159
g5065
g5094
sg5074
I24
sg5075
I18
sg5076
I11
sa(dp5160
g5065
g5099
sg5074
I25
sg5075
I10
sg5076
I12
sa(dp5161
g5065
g5099
sg5074
I26
sg5075
I10
sg5076
I12
sa(dp5162
g5065
g5099
sg5074
I27
sg5075
I10
sg5076
I13
sa(dp5163
g5065
g5116
sg5074
I28
sg5075
I18
sg5076
I13
sa(dp5164
g5065
g5116
sg5074
I29
sg5075
I18
sg5076
I13
sa(dp5165
g5065
g5127
sg5074
I30
sg5075
I18
sg5076
I14
sa(dp5166
g5065
g5127
sg5074
I31
sg5075
I18
sg5076
I14
sa(dp5167
g5065
g5136
sg5074
I32
sg5075
I10
sg5076
I14
sa(dp5168
g5065
g5136
sg5074
I33
sg5075
I10
sg5076
I14
sa(dp5169
g5065
g5099
sg5074
I34
sg5075
I10
sg5076
I15
sa(dp5170
g5065
g5099
sg5074
I35
sg5075
I10
sg5076
I15
sa(dp5171
g5065
g5094
sg5074
I36
sg5075
I10
sg5076
I16
sa(dp5172
g5065
g5085
sg5074
I37
sg5075
I18
sg5076
I16
sa(dp5173
g5065
g5085
sg5074
I38
sg5075
I18
sg5076
I16
sa(dp5174
g5065
g5094
sg5074
I39
sg5075
I10
sg5076
I18
sa(dp5175
g5065
g5157
sg5074
I40
sg5075
I12
sg5076
I18
sa(dp5176
g5065
g5157
sg5074
I41
sg5075
I12
sg5076
I18
sa(dp5177
g5065
g5157
sg5074
I42
sg5075
I15
sg5076
I18
sa(dp5178
g5065
g5157
sg5074
I43
sg5075
I20
sg5076
I18
sa(dp5179
g5065
(VON
p5180
tp5181
sg5074
I44
sg5075
I10
sg5076
I19
sa(dp5182
g5065
g5181
sg5074
I45
sg5075
I10
sg5076
I19
sa(dp5183
g5065
g5181
sg5074
I46
sg5075
I10
sg5076
I20
sa(dp5184
g5065
g5116
sg5074
I47
sg5075
I18
sg5076
I20
sa(dp5185
g5065
g5116
sg5074
I48
sg5075
I18
sg5076
I20
sa(dp5186
g5065
g5085
sg5074
I49
sg5075
I10
sg5076
I21
sa(dp5187
g5065
g5085
sg5074
I50
sg5075
I10
sg5076
I21
sasS'objects'
p5188
(lp5189
(dp5190
S'score'
p5191
cnumpy.core.multiarray
scalar
p5192
(cnumpy
dtype
p5193
(S'i8'
p5194
I0
I1
tp5195
Rp5196
(I3
S'<'
p5197
NNNI-1
I-1
I0
tp5198
bS'\x01\x00\x00\x00\x00\x00\x00\x00'
p5199
tp5200
Rp5201
sS'name'
p5202
g5192
(g5193
(S'U12'
p5203
I0
I1
tp5204
Rp5205
(I3
S'<'
p5206
NNNI48
I4
I8
tp5207
bS'w\x00\x00\x00e\x00\x00\x00a\x00\x00\x00t\x00\x00\x00h\x00\x00\x00e\x00\x00\x00r\x00\x00\x00 \x00\x00\x00v\x00\x00\x00a\x00\x00\x00n\x00\x00\x00e\x00\x00\x00'
p5208
tp5209
Rp5210
sS'w'
p5211
I40
sS'h'
p5212
I45
sS'y'
p5213
I56
sS'x'
p5214
I161
sS'attributes'
p5215
(lp5216
sg5075
I0
sa(dp5217
g5191
g5192
(g5196
S'\x01\x00\x00\x00\x00\x00\x00\x00'
p5218
tp5219
Rp5220
sg5202
g5192
(g5193
(S'U5'
p5221
I0
I1
tp5222
Rp5223
(I3
S'<'
p5224
NNNI20
I4
I8
tp5225
bS'c\x00\x00\x00l\x00\x00\x00o\x00\x00\x00c\x00\x00\x00k\x00\x00\x00'
p5226
tp5227
Rp5228
sg5211
I43
sg5212
I43
sg5213
I348
sg5214
I133
sg5215
(lp5229
Vlarge 
p5230
ag5230
ag5230
ag5230
ag5230
asg5075
I1
sa(dp5231
g5191
g5192
(g5196
S'\x01\x00\x00\x00\x00\x00\x00\x00'
p5232
tp5233
Rp5234
sg5202
g5192
(g5193
(S'U4'
p5235
I0
I1
tp5236
Rp5237
(I3
S'<'
p5238
NNNI16
I4
I8
tp5239
bS'b\x00\x00\x00e\x00\x00\x00l\x00\x00\x00l\x00\x00\x00'
p5240
tp5241
Rp5242
sg5211
I32
sg5212
I32
sg5213
I256
sg5214
I141
sg5215
(lp5243
g5230
ag5230
asg5075
I2
sa(dp5244
g5191
g5192
(g5196
S'\x01\x00\x00\x00\x00\x00\x00\x00'
p5245
tp5246
Rp5247
sg5202
g5192
(g5193
(S'U4'
p5248
I0
I1
tp5249
Rp5250
(I3
S'<'
p5251
NNNI16
I4
I8
tp5252
bS'b\x00\x00\x00e\x00\x00\x00l\x00\x00\x00l\x00\x00\x00'
p5253
tp5254
Rp5255
sg5211
I60
sg5212
I45
sg5213
I292
sg5214
I121
sg5215
(lp5256
g5230
ag5230
ag5230
ag5230
ag5230
asg5075
I3
sa(dp5257
g5191
g5192
(g5196
S'\x01\x00\x00\x00\x00\x00\x00\x00'
p5258
tp5259
Rp5260
sg5202
g5192
(g5193
(S'U5'
p5261
I0
I1
tp5262
Rp5263
(I3
S'<'
p5264
NNNI20
I4
I8
tp5265
bS't\x00\x00\x00o\x00\x00\x00w\x00\x00\x00e\x00\x00\x00r\x00\x00\x00'
p5266
tp5267
Rp5268
sg5211
I186
sg5212
I369
sg5213
I45
sg5214
I82
sg5215
(lp5269
g5230
ag5230
ag5230
ag5230
asg5075
I4
sa(dp5270
g5191
g5192
(g5196
S'\x01\x00\x00\x00\x00\x00\x00\x00'
p5271
tp5272
Rp5273
sg5202
g5192
(g5193
(S'U5'
p5274
I0
I1
tp5275
Rp5276
(I3
S'<'
p5277
NNNI20
I4
I8
tp5278
bS't\x00\x00\x00o\x00\x00\x00w\x00\x00\x00e\x00\x00\x00r\x00\x00\x00'
p5279
tp5280
Rp5281
sg5211
I128
sg5212
I342
sg5213
I53
sg5214
I107
sg5215
(lp5282
g5230
ag5230
aVWHITE
p5283
aVmodern
p5284
ag5230
asg5075
I5
sa(dp5285
g5191
g5192
(g5196
S'\x01\x00\x00\x00\x00\x00\x00\x00'
p5286
tp5287
Rp5288
sg5202
g5192
(g5193
(S'U10'
p5289
I0
I1
tp5290
Rp5291
(I3
S'<'
p5292
NNNI40
I4
I8
tp5293
bS'b\x00\x00\x00a\x00\x00\x00l\x00\x00\x00u\x00\x00\x00s\x00\x00\x00t\x00\x00\x00r\x00\x00\x00a\x00\x00\x00d\x00\x00\x00e\x00\x00\x00'
p5294
tp5295
Rp5296
sg5211
I230
sg5212
I84
sg5213
I385
sg5214
I0
sg5215
(lp5297
sg5075
I6
sa(dp5298
g5191
g5192
(g5196
S'\x01\x00\x00\x00\x00\x00\x00\x00'
p5299
tp5300
Rp5301
sg5202
g5192
(g5193
(S'U4'
p5302
I0
I1
tp5303
Rp5304
(I3
S'<'
p5305
NNNI16
I4
I8
tp5306
bS'r\x00\x00\x00o\x00\x00\x00o\x00\x00\x00f\x00\x00\x00'
p5307
tp5308
Rp5309
sg5211
I48
sg5212
I18
sg5213
I384
sg5214
I1
sg5215
(lp5310
g5230
ag5230
ag5230
ag5230
ag5230
asg5075
I7
sa(dp5311
g5191
g5192
(g5196
S'\x01\x00\x00\x00\x00\x00\x00\x00'
p5312
tp5313
Rp5314
sg5202
g5192
(g5193
(S'U5'
p5315
I0
I1
tp5316
Rp5317
(I3
S'<'
p5318
NNNI20
I4
I8
tp5319
bS'c\x00\x00\x00r\x00\x00\x00o\x00\x00\x00s\x00\x00\x00s\x00\x00\x00'
p5320
tp5321
Rp5322
sg5211
I39
sg5212
I45
sg5213
I57
sg5214
I164
sg5215
(lp5323
Vbroken
p5324
asg5075
I8
sa(dp5325
g5191
g5192
(g5196
S'\x01\x00\x00\x00\x00\x00\x00\x00'
p5326
tp5327
Rp5328
sg5202
g5192
(g5193
(S'U5'
p5329
I0
I1
tp5330
Rp5331
(I3
S'<'
p5332
NNNI20
I4
I8
tp5333
bS't\x00\x00\x00o\x00\x00\x00w\x00\x00\x00e\x00\x00\x00r\x00\x00\x00'
p5334
tp5335
Rp5336
sg5211
I130
sg5212
I309
sg5213
I101
sg5214
I104
sg5215
(lp5337
g5230
ag5230
ag5230
ag5230
ag5230
asg5075
I9
sa(dp5338
g5191
g5192
(g5196
S'\x01\x00\x00\x00\x00\x00\x00\x00'
p5339
tp5340
Rp5341
sg5202
g5192
(g5193
(S'U6'
p5342
I0
I1
tp5343
Rp5344
(I3
S'<'
p5345
NNNI24
I4
I8
tp5346
bS'h\x00\x00\x00o\x00\x00\x00u\x00\x00\x00s\x00\x00\x00e\x00\x00\x00s\x00\x00\x00'
p5347
tp5348
Rp5349
sg5211
I372
sg5212
I128
sg5213
I327
sg5214
I0
sg5215
(lp5350
g5230
aVlarge
p5351
ag5230
ag5230
ag5230
asg5075
I10
sa(dp5352
g5191
g5192
(g5196
S'\x01\x00\x00\x00\x00\x00\x00\x00'
p5353
tp5354
Rp5355
sg5202
g5192
(g5193
(S'U11'
p5356
I0
I1
tp5357
Rp5358
(I3
S'<'
p5359
NNNI44
I4
I8
tp5360
bS'c\x00\x00\x00l\x00\x00\x00o\x00\x00\x00c\x00\x00\x00k\x00\x00\x00 \x00\x00\x00t\x00\x00\x00o\x00\x00\x00w\x00\x00\x00e\x00\x00\x00r\x00\x00\x00'
p5361
tp5362
Rp5363
sg5211
I124
sg5212
I291
sg5213
I99
sg5214
I108
sg5215
(lp5364
g5230
ag5230
ag5230
ag5230
ag5230
asg5075
I11
sa(dp5365
g5191
g5192
(g5196
S'\x01\x00\x00\x00\x00\x00\x00\x00'
p5366
tp5367
Rp5368
sg5202
g5192
(g5193
(S'U4'
p5369
I0
I1
tp5370
Rp5371
(I3
S'<'
p5372
NNNI16
I4
I8
tp5373
bS'b\x00\x00\x00e\x00\x00\x00l\x00\x00\x00l\x00\x00\x00'
p5374
tp5375
Rp5376
sg5211
I43
sg5212
I70
sg5213
I249
sg5214
I143
sg5215
(lp5377
g5230
ag5230
ag5230
asg5075
I12
sa(dp5378
g5191
g5192
(g5196
S'\x01\x00\x00\x00\x00\x00\x00\x00'
p5379
tp5380
Rp5381
sg5202
g5192
(g5193
(S'U4'
p5382
I0
I1
tp5383
Rp5384
(I3
S'<'
p5385
NNNI16
I4
I8
tp5386
bS'b\x00\x00\x00e\x00\x00\x00l\x00\x00\x00l\x00\x00\x00'
p5387
tp5388
Rp5389
sg5211
I167
sg5212
I223
sg5213
I125
sg5214
I99
sg5215
(lp5390
g5230
ag5230
ag5230
ag5230
aVyellow
p5391
asg5075
I13
sa(dp5392
g5191
g5192
(g5196
S'\x01\x00\x00\x00\x00\x00\x00\x00'
p5393
tp5394
Rp5395
sg5202
g5192
(g5193
(S'U5'
p5396
I0
I1
tp5397
Rp5398
(I3
S'<'
p5399
NNNI20
I4
I8
tp5400
bS't\x00\x00\x00o\x00\x00\x00w\x00\x00\x00e\x00\x00\x00r\x00\x00\x00'
p5401
tp5402
Rp5403
sg5211
I124
sg5212
I370
sg5213
I55
sg5214
I109
sg5215
(lp5404
g5230
ag5230
ag5230
ag5230
ag5230
asg5075
I14
sa(dp5405
g5191
g5192
(g5196
S'\x01\x00\x00\x00\x00\x00\x00\x00'
p5406
tp5407
Rp5408
sg5202
g5192
(g5193
(S'U4'
p5409
I0
I1
tp5410
Rp5411
(I3
S'<'
p5412
NNNI16
I4
I8
tp5413
bS'b\x00\x00\x00e\x00\x00\x00l\x00\x00\x00l\x00\x00\x00'
p5414
tp5415
Rp5416
sg5211
I22
sg5212
I24
sg5213
I301
sg5214
I146
sg5215
(lp5417
g5230
ag5230
asg5075
I15
sa(dp5418
g5191
g5192
(g5196
S'\x01\x00\x00\x00\x00\x00\x00\x00'
p5419
tp5420
Rp5421
sg5202
g5192
(g5193
(S'U5'
p5422
I0
I1
tp5423
Rp5424
(I3
S'<'
p5425
NNNI20
I4
I8
tp5426
bS'c\x00\x00\x00l\x00\x00\x00o\x00\x00\x00c\x00\x00\x00k\x00\x00\x00'
p5427
tp5428
Rp5429
sg5211
I47
sg5212
I61
sg5213
I339
sg5214
I128
sg5215
(lp5430
g5230
aVrusty
p5431
ag5230
ag5230
ag5230
asg5075
I16
sa(dp5432
g5191
g5192
(g5196
S'\x01\x00\x00\x00\x00\x00\x00\x00'
p5433
tp5434
Rp5435
sg5202
g5192
(g5193
(S'U4'
p5436
I0
I1
tp5437
Rp5438
(I3
S'<'
p5439
NNNI16
I4
I8
tp5440
bS'a\x00\x00\x00r\x00\x00\x00m\x00\x00\x00s\x00\x00\x00'
p5441
tp5442
Rp5443
sg5211
I27
sg5212
I19
sg5213
I367
sg5214
I139
sg5215
(lp5444
Vcrossed
p5445
ag5445
ag5445
asg5075
I17
sa(dp5446
g5191
g5192
(g5196
S'\x01\x00\x00\x00\x00\x00\x00\x00'
p5447
tp5448
Rp5449
sg5202
g5192
(g5193
(S'U4'
p5450
I0
I1
tp5451
Rp5452
(I3
S'<'
p5453
NNNI16
I4
I8
tp5454
bS'w\x00\x00\x00a\x00\x00\x00l\x00\x00\x00l\x00\x00\x00'
p5455
tp5456
Rp5457
sg5211
I232
sg5212
I96
sg5213
I379
sg5214
I0
sg5215
(lp5458
g5230
ag5230
ag5230
ag5230
ag5230
asg5075
I18
sa(dp5459
g5191
g5192
(g5196
S'\x01\x00\x00\x00\x00\x00\x00\x00'
p5460
tp5461
Rp5462
sg5202
g5192
(g5193
(S'U5'
p5463
I0
I1
tp5464
Rp5465
(I3
S'<'
p5466
NNNI20
I4
I8
tp5467
bS'h\x00\x00\x00o\x00\x00\x00l\x00\x00\x00e\x00\x00\x00s\x00\x00\x00'
p5468
tp5469
Rp5470
sg5211
I58
sg5212
I27
sg5213
I390
sg5214
I159
sg5215
(lp5471
Vshallow
p5472
ag5472
ag5472
asg5075
I19
sa(dp5473
g5191
g5192
(g5196
S'\x01\x00\x00\x00\x00\x00\x00\x00'
p5474
tp5475
Rp5476
sg5202
g5192
(g5193
(S'U5'
p5477
I0
I1
tp5478
Rp5479
(I3
S'<'
p5480
NNNI20
I4
I8
tp5481
bS'h\x00\x00\x00o\x00\x00\x00l\x00\x00\x00e\x00\x00\x00s\x00\x00\x00'
p5482
tp5483
Rp5484
sg5211
I115
sg5212
I46
sg5213
I409
sg5214
I1
sg5215
(lp5485
g5472
aVblue
p5486
ag5472
ag5472
ag5472
asg5075
I20
sa(dp5487
g5191
g5192
(g5196
S'\x01\x00\x00\x00\x00\x00\x00\x00'
p5488
tp5489
Rp5490
sg5202
g5192
(g5193
(S'U4'
p5491
I0
I1
tp5492
Rp5493
(I3
S'<'
p5494
NNNI16
I4
I8
tp5495
bS'r\x00\x00\x00o\x00\x00\x00o\x00\x00\x00f\x00\x00\x00'
p5496
tp5497
Rp5498
sg5211
I118
sg5212
I142
sg5213
I100
sg5214
I115
sg5215
(lp5499
g5230
ag5230
ag5230
ag5230
ag5230
asg5075
I21
sa(dp5500
g5191
g5192
(g5196
S'\x01\x00\x00\x00\x00\x00\x00\x00'
p5501
tp5502
Rp5503
sg5202
g5192
(g5193
(S'U12'
p5504
I0
I1
tp5505
Rp5506
(I3
S'<'
p5507
NNNI48
I4
I8
tp5508
bS'w\x00\x00\x00e\x00\x00\x00a\x00\x00\x00t\x00\x00\x00h\x00\x00\x00e\x00\x00\x00r\x00\x00\x00 \x00\x00\x00v\x00\x00\x00a\x00\x00\x00n\x00\x00\x00e\x00\x00\x00'
p5509
tp5510
Rp5511
sg5211
I45
sg5212
I35
sg5213
I65
sg5214
I155
sg5215
(lp5512
sg5075
I22
sasa(dp5513
g5062
(lp5514
(dp5515
g5065
(S'reflected in'
p5516
S'reflected in a'
p5517
S'are reflected in'
p5518
tp5519
sg5074
I0
sg5075
I1
sg5076
I0
sa(dp5520
g5065
g5519
sg5074
I1
sg5075
I1
sg5076
I1
sasg5188
(lp5521
(dp5522
g5191
g5192
(g5196
S'\x01\x00\x00\x00\x00\x00\x00\x00'
p5523
tp5524
Rp5525
sg5202
g5192
(g5193
(S'U5'
p5526
I0
I1
tp5527
Rp5528
(I3
S'<'
p5529
NNNI20
I4
I8
tp5530
bS'f\x00\x00\x00l\x00\x00\x00o\x00\x00\x00o\x00\x00\x00r\x00\x00\x00'
p5531
tp5532
Rp5533
sg5211
I134
sg5212
I54
sg5213
I199
sg5214
I25
sg5215
(lp5534
Vdark red
p5535
asg5075
I0
sa(dp5536
g5191
g5192
(g5196
S'\x01\x00\x00\x00\x00\x00\x00\x00'
p5537
tp5538
Rp5539
sg5202
g5192
(g5193
(S'U5'
p5540
I0
I1
tp5541
Rp5542
(I3
S'<'
p5543
NNNI20
I4
I8
tp5544
bS'f\x00\x00\x00l\x00\x00\x00o\x00\x00\x00o\x00\x00\x00r\x00\x00\x00'
p5545
tp5546
Rp5547
sg5211
I110
sg5212
I42
sg5213
I199
sg5214
I45
sg5215
(lp5548
g5535
asg5075
I1
sa(dp5549
g5191
g5192
(g5196
S'\x01\x00\x00\x00\x00\x00\x00\x00'
p5550
tp5551
Rp5552
sg5202
g5192
(g5193
(S'U4'
p5553
I0
I1
tp5554
Rp5555
(I3
S'<'
p5556
NNNI16
I4
I8
tp5557
bS'w\x00\x00\x00a\x00\x00\x00l\x00\x00\x00l\x00\x00\x00'
p5558
tp5559
Rp5560
sg5211
I44
sg5212
I84
sg5213
I37
sg5214
I322
sg5215
(lp5561
sg5075
I2
sasa(dp5562
g5062
(lp5563
(dp5564
g5065
g5157
sg5074
I0
sg5075
I21
sg5076
I1
sa(dp5565
g5065
g5157
sg5074
I1
sg5075
I21
sg5076
I1
sa(dp5566
g5065
(S'over'
p5567
S'are over'
p5568
S'over a'
p5569
S'over the'
p5570
S'over an'
p5571
S'are over a'
p5572
S'are over an'
p5573
S'is over'
p5574
tp5575
sg5074
I2
sg5075
I21
sg5076
I3
sa(dp5576
g5065
g5575
sg5074
I3
sg5075
I21
sg5076
I3
sa(dp5577
g5065
(VIN
p5578
tp5579
sg5074
I4
sg5075
I21
sg5076
I4
sa(dp5580
g5065
g5136
sg5074
I5
sg5075
I21
sg5076
I7
sa(dp5581
g5065
g5519
sg5074
I6
sg5075
I21
sg5076
I8
sa(dp5582
g5065
g5519
sg5074
I7
sg5075
I21
sg5076
I9
sa(dp5583
g5065
g5519
sg5074
I8
sg5075
I21
sg5076
I10
sa(dp5584
g5065
g5519
sg5074
I9
sg5075
I21
sg5076
I11
sa(dp5585
g5065
g5519
sg5074
I10
sg5075
I21
sg5076
I12
sa(dp5586
g5065
g5575
sg5074
I11
sg5075
I21
sg5076
I14
sa(dp5587
g5065
g5575
sg5074
I12
sg5075
I21
sg5076
I14
sa(dp5588
g5065
g5579
sg5074
I13
sg5075
I21
sg5076
I15
sa(dp5589
g5065
g5579
sg5074
I14
sg5075
I21
sg5076
I15
sa(dp5590
g5065
g5579
sg5074
I15
sg5075
I21
sg5076
I16
sa(dp5591
g5065
g5579
sg5074
I16
sg5075
I21
sg5076
I16
sa(dp5592
g5065
g5579
sg5074
I17
sg5075
I21
sg5076
I17
sa(dp5593
g5065
g5579
sg5074
I18
sg5075
I21
sg5076
I17
sa(dp5594
g5065
g5579
sg5074
I19
sg5075
I21
sg5076
I19
sa(dp5595
g5065
g5519
sg5074
I20
sg5075
I21
sg5076
I20
sa(dp5596
g5065
g5073
sg5074
I21
sg5075
I21
sg5076
I21
sa(dp5597
g5065
(S'next to'
p5598
S'next to a'
p5599
S'are next to'
p5600
S'next to the'
p5601
S'is next to the'
p5602
S'are next to a'
p5603
S'next to an'
p5604
S'is next to'
p5605
S'are next to the'
p5606
tp5607
sg5074
I22
sg5075
I12
sg5076
I21
sa(dp5608
g5065
g5607
sg5074
I23
sg5075
I12
sg5076
I21
sa(dp5609
g5065
g5579
sg5074
I24
sg5075
I21
sg5076
I22
sa(dp5610
g5065
g5579
sg5074
I25
sg5075
I21
sg5076
I22
sa(dp5611
g5065
g5579
sg5074
I26
sg5075
I21
sg5076
I26
sa(dp5612
g5065
g5579
sg5074
I27
sg5075
I21
sg5076
I26
sa(dp5613
g5065
(S'in'
p5614
S'in a'
p5615
S'are in'
p5616
S'are in a'
p5617
S'in the'
p5618
S'in an'
p5619
S'is in'
p5620
S'is in a'
p5621
S'is in the'
p5622
S'are in the'
p5623
S'are in an'
p5624
tp5625
sg5074
I28
sg5075
I21
sg5076
I28
sa(dp5626
g5065
g5575
sg5074
I29
sg5075
I21
sg5076
I29
sa(dp5627
g5065
g5575
sg5074
I30
sg5075
I21
sg5076
I29
sasg5188
(lp5628
(dp5629
g5191
g5192
(g5196
S'\x01\x00\x00\x00\x00\x00\x00\x00'
p5630
tp5631
Rp5632
sg5202
g5192
(g5193
(S'U9'
p5633
I0
I1
tp5634
Rp5635
(I3
S'<'
p5636
NNNI36
I4
I8
tp5637
bS's\x00\x00\x00c\x00\x00\x00u\x00\x00\x00l\x00\x00\x00p\x00\x00\x00t\x00\x00\x00u\x00\x00\x00r\x00\x00\x00e\x00\x00\x00'
p5638
tp5639
Rp5640
sg5211
I279
sg5212
I330
sg5213
I3
sg5214
I146
sg5215
(lp5641
g5230
ag5230
ag5230
asg5075
I0
sa(dp5642
g5191
g5192
(g5196
S'\x01\x00\x00\x00\x00\x00\x00\x00'
p5643
tp5644
Rp5645
sg5202
g5192
(g5193
(S'U9'
p5646
I0
I1
tp5647
Rp5648
(I3
S'<'
p5649
NNNI36
I4
I8
tp5650
bS's\x00\x00\x00u\x00\x00\x00r\x00\x00\x00f\x00\x00\x00b\x00\x00\x00o\x00\x00\x00a\x00\x00\x00r\x00\x00\x00d\x00\x00\x00'
p5651
tp5652
Rp5653
sg5211
I265
sg5212
I116
sg5213
I212
sg5214
I164
sg5215
(lp5654
g5230
ag5230
asg5075
I1
sa(dp5655
g5191
g5192
(g5196
S'\x01\x00\x00\x00\x00\x00\x00\x00'
p5656
tp5657
Rp5658
sg5202
g5192
(g5193
(S'U15'
p5659
I0
I1
tp5660
Rp5661
(I3
S'<'
p5662
NNNI60
I4
I8
tp5663
bS's\x00\x00\x00k\x00\x00\x00a\x00\x00\x00t\x00\x00\x00i\x00\x00\x00n\x00\x00\x00g\x00\x00\x00 \x00\x00\x00g\x00\x00\x00o\x00\x00\x00g\x00\x00\x00g\x00\x00\x00l\x00\x00\x00e\x00\x00\x00s\x00\x00\x00'
p5664
tp5665
Rp5666
sg5211
I73
sg5212
I51
sg5213
I80
sg5214
I141
sg5215
(lp5667
sg5075
I2
sa(dp5668
g5191
g5192
(g5196
S'\x01\x00\x00\x00\x00\x00\x00\x00'
p5669
tp5670
Rp5671
sg5202
g5192
(g5193
(S'U3'
p5672
I0
I1
tp5673
Rp5674
(I3
S'<'
p5675
NNNI12
I4
I8
tp5676
bS's\x00\x00\x00k\x00\x00\x00y\x00\x00\x00'
p5677
tp5678
Rp5679
sg5211
I490
sg5212
I178
sg5213
I2
sg5214
I5
sg5215
(lp5680
g5230
ag5230
asg5075
I3
sa(dp5681
g5191
g5192
(g5196
S'\x01\x00\x00\x00\x00\x00\x00\x00'
p5682
tp5683
Rp5684
sg5202
g5192
(g5193
(S'U8'
p5685
I0
I1
tp5686
Rp5687
(I3
S'<'
p5688
NNNI32
I4
I8
tp5689
bS'm\x00\x00\x00o\x00\x00\x00u\x00\x00\x00n\x00\x00\x00t\x00\x00\x00a\x00\x00\x00i\x00\x00\x00n\x00\x00\x00'
p5690
tp5691
Rp5692
sg5211
I90
sg5212
I39
sg5213
I146
sg5214
I331
sg5215
(lp5693
g5230
asg5075
I4
sa(dp5694
g5191
g5192
(g5196
S'\x01\x00\x00\x00\x00\x00\x00\x00'
p5695
tp5696
Rp5697
sg5202
g5192
(g5193
(S'U5'
p5698
I0
I1
tp5699
Rp5700
(I3
S'<'
p5701
NNNI20
I4
I8
tp5702
bS'k\x00\x00\x00n\x00\x00\x00e\x00\x00\x00e\x00\x00\x00s\x00\x00\x00'
p5703
tp5704
Rp5705
sg5211
I115
sg5212
I37
sg5213
I215
sg5214
I264
sg5215
(lp5706
g5445
asg5075
I5
sa(dp5707
g5191
g5192
(g5196
S'\x01\x00\x00\x00\x00\x00\x00\x00'
p5708
tp5709
Rp5710
sg5202
g5192
(g5193
(S'U13'
p5711
I0
I1
tp5712
Rp5713
(I3
S'<'
p5714
NNNI52
I4
I8
tp5715
bS'a\x00\x00\x00c\x00\x00\x00t\x00\x00\x00i\x00\x00\x00o\x00\x00\x00n\x00\x00\x00 \x00\x00\x00f\x00\x00\x00i\x00\x00\x00g\x00\x00\x00u\x00\x00\x00r\x00\x00\x00e\x00\x00\x00'
p5716
tp5717
Rp5718
sg5211
I278
sg5212
I323
sg5213
I4
sg5214
I148
sg5215
(lp5719
sg5075
I6
sa(dp5720
g5191
g5192
(g5196
S'\x01\x00\x00\x00\x00\x00\x00\x00'
p5721
tp5722
Rp5723
sg5202
g5192
(g5193
(S'U5'
p5724
I0
I1
tp5725
Rp5726
(I3
S'<'
p5727
NNNI20
I4
I8
tp5728
bS'b\x00\x00\x00o\x00\x00\x00a\x00\x00\x00r\x00\x00\x00d\x00\x00\x00'
p5729
tp5730
Rp5731
sg5211
I44
sg5212
I71
sg5213
I220
sg5214
I377
sg5215
(lp5732
g5230
asg5075
I7
sa(dp5733
g5191
g5192
(g5196
S'\x01\x00\x00\x00\x00\x00\x00\x00'
p5734
tp5735
Rp5736
sg5202
g5192
(g5193
(S'U5'
p5737
I0
I1
tp5738
Rp5739
(I3
S'<'
p5740
NNNI20
I4
I8
tp5741
bS'l\x00\x00\x00i\x00\x00\x00g\x00\x00\x00h\x00\x00\x00t\x00\x00\x00'
p5742
tp5743
Rp5744
sg5211
I15
sg5212
I20
sg5213
I52
sg5214
I457
sg5215
(lp5745
g5230
asg5075
I8
sa(dp5746
g5191
g5192
(g5196
S'\x01\x00\x00\x00\x00\x00\x00\x00'
p5747
tp5748
Rp5749
sg5202
g5192
(g5193
(S'U5'
p5750
I0
I1
tp5751
Rp5752
(I3
S'<'
p5753
NNNI20
I4
I8
tp5754
bS'l\x00\x00\x00i\x00\x00\x00g\x00\x00\x00h\x00\x00\x00t\x00\x00\x00'
p5755
tp5756
Rp5757
sg5211
I14
sg5212
I17
sg5213
I45
sg5214
I445
sg5215
(lp5758
g5230
asg5075
I9
sa(dp5759
g5191
g5192
(g5196
S'\x01\x00\x00\x00\x00\x00\x00\x00'
p5760
tp5761
Rp5762
sg5202
g5192
(g5193
(S'U5'
p5763
I0
I1
tp5764
Rp5765
(I3
S'<'
p5766
NNNI20
I4
I8
tp5767
bS'l\x00\x00\x00i\x00\x00\x00g\x00\x00\x00h\x00\x00\x00t\x00\x00\x00'
p5768
tp5769
Rp5770
sg5211
I15
sg5212
I25
sg5213
I32
sg5214
I433
sg5215
(lp5771
g5230
asg5075
I10
sa(dp5772
g5191
g5192
(g5196
S'\x01\x00\x00\x00\x00\x00\x00\x00'
p5773
tp5774
Rp5775
sg5202
g5192
(g5193
(S'U5'
p5776
I0
I1
tp5777
Rp5778
(I3
S'<'
p5779
NNNI20
I4
I8
tp5780
bS'l\x00\x00\x00i\x00\x00\x00g\x00\x00\x00h\x00\x00\x00t\x00\x00\x00'
p5781
tp5782
Rp5783
sg5211
I21
sg5212
I25
sg5213
I25
sg5214
I414
sg5215
(lp5784
g5230
asg5075
I11
sa(dp5785
g5191
g5192
(g5196
S'\x01\x00\x00\x00\x00\x00\x00\x00'
p5786
tp5787
Rp5788
sg5202
g5192
(g5193
(S'U5'
p5789
I0
I1
tp5790
Rp5791
(I3
S'<'
p5792
NNNI20
I4
I8
tp5793
bS'l\x00\x00\x00i\x00\x00\x00g\x00\x00\x00h\x00\x00\x00t\x00\x00\x00'
p5794
tp5795
Rp5796
sg5211
I20
sg5212
I20
sg5213
I20
sg5214
I400
sg5215
(lp5797
Vdigital
p5798
asg5075
I12
sa(dp5799
g5191
g5192
(g5196
S'\x01\x00\x00\x00\x00\x00\x00\x00'
p5800
tp5801
Rp5802
sg5202
g5192
(g5193
(S'U8'
p5803
I0
I1
tp5804
Rp5805
(I3
S'<'
p5806
NNNI32
I4
I8
tp5807
bS'b\x00\x00\x00l\x00\x00\x00u\x00\x00\x00e\x00\x00\x00 \x00\x00\x00s\x00\x00\x00k\x00\x00\x00y\x00\x00\x00'
p5808
tp5809
Rp5810
sg5211
I492
sg5212
I168
sg5213
I2
sg5214
I5
sg5215
(lp5811
g5230
ag5230
asg5075
I13
sa(dp5812
g5191
g5192
(g5196
S'\x01\x00\x00\x00\x00\x00\x00\x00'
p5813
tp5814
Rp5815
sg5202
g5192
(g5193
(S'U3'
p5816
I0
I1
tp5817
Rp5818
(I3
S'<'
p5819
NNNI12
I4
I8
tp5820
bS's\x00\x00\x00k\x00\x00\x00y\x00\x00\x00'
p5821
tp5822
Rp5823
sg5211
I65
sg5212
I95
sg5213
I28
sg5214
I54
sg5215
(lp5824
g5230
ag5230
asg5075
I14
sa(dp5825
g5191
g5192
(g5196
S'\x01\x00\x00\x00\x00\x00\x00\x00'
p5826
tp5827
Rp5828
sg5202
g5192
(g5193
(S'U8'
p5829
I0
I1
tp5830
Rp5831
(I3
S'<'
p5832
NNNI32
I4
I8
tp5833
bS'm\x00\x00\x00o\x00\x00\x00u\x00\x00\x00n\x00\x00\x00t\x00\x00\x00a\x00\x00\x00i\x00\x00\x00n\x00\x00\x00'
p5834
tp5835
Rp5836
sg5211
I53
sg5212
I72
sg5213
I184
sg5214
I55
sg5215
(lp5837
Vsnowy
p5838
ag5230
asg5075
I15
sa(dp5839
g5191
g5192
(g5196
S'\x01\x00\x00\x00\x00\x00\x00\x00'
p5840
tp5841
Rp5842
sg5202
g5192
(g5193
(S'U8'
p5843
I0
I1
tp5844
Rp5845
(I3
S'<'
p5846
NNNI32
I4
I8
tp5847
bS'm\x00\x00\x00o\x00\x00\x00u\x00\x00\x00n\x00\x00\x00t\x00\x00\x00a\x00\x00\x00i\x00\x00\x00n\x00\x00\x00'
p5848
tp5849
Rp5850
sg5211
I53
sg5212
I39
sg5213
I163
sg5214
I102
sg5215
(lp5851
g5230
ag5230
asg5075
I16
sa(dp5852
g5191
g5192
(g5196
S'\x01\x00\x00\x00\x00\x00\x00\x00'
p5853
tp5854
Rp5855
sg5202
g5192
(g5193
(S'U8'
p5856
I0
I1
tp5857
Rp5858
(I3
S'<'
p5859
NNNI32
I4
I8
tp5860
bS'm\x00\x00\x00o\x00\x00\x00u\x00\x00\x00n\x00\x00\x00t\x00\x00\x00a\x00\x00\x00i\x00\x00\x00n\x00\x00\x00'
p5861
tp5862
Rp5863
sg5211
I31
sg5212
I37
sg5213
I167
sg5214
I32
sg5215
(lp5864
Vgrouped
p5865
ag5230
asg5075
I17
sa(dp5866
g5191
g5192
(g5196
S'\x01\x00\x00\x00\x00\x00\x00\x00'
p5867
tp5868
Rp5869
sg5202
g5192
(g5193
(S'U6'
p5870
I0
I1
tp5871
Rp5872
(I3
S'<'
p5873
NNNI24
I4
I8
tp5874
bS's\x00\x00\x00t\x00\x00\x00a\x00\x00\x00t\x00\x00\x00u\x00\x00\x00e\x00\x00\x00'
p5875
tp5876
Rp5877
sg5211
I227
sg5212
I267
sg5213
I52
sg5214
I187
sg5215
(lp5878
g5230
ag5230
asg5075
I18
sa(dp5879
g5191
g5192
(g5196
S'\x01\x00\x00\x00\x00\x00\x00\x00'
p5880
tp5881
Rp5882
sg5202
g5192
(g5193
(S'U8'
p5883
I0
I1
tp5884
Rp5885
(I3
S'<'
p5886
NNNI32
I4
I8
tp5887
bS'm\x00\x00\x00o\x00\x00\x00u\x00\x00\x00n\x00\x00\x00t\x00\x00\x00a\x00\x00\x00i\x00\x00\x00n\x00\x00\x00'
p5888
tp5889
Rp5890
sg5211
I157
sg5212
I83
sg5213
I146
sg5214
I334
sg5215
(lp5891
g5230
asg5075
I19
sa(dp5892
g5191
g5192
(g5196
S'\x01\x00\x00\x00\x00\x00\x00\x00'
p5893
tp5894
Rp5895
sg5202
g5192
(g5193
(S'U6'
p5896
I0
I1
tp5897
Rp5898
(I3
S'<'
p5899
NNNI24
I4
I8
tp5900
bS'l\x00\x00\x00i\x00\x00\x00g\x00\x00\x00h\x00\x00\x00t\x00\x00\x00s\x00\x00\x00'
p5901
tp5902
Rp5903
sg5211
I150
sg5212
I85
sg5213
I3
sg5214
I349
sg5215
(lp5904
g5230
asg5075
I20
sa(dp5905
g5191
g5192
(g5196
S'\x01\x00\x00\x00\x00\x00\x00\x00'
p5906
tp5907
Rp5908
sg5202
g5192
(g5193
(S'U7'
p5909
I0
I1
tp5910
Rp5911
(I3
S'<'
p5912
NNNI28
I4
I8
tp5913
bS'p\x00\x00\x00i\x00\x00\x00c\x00\x00\x00t\x00\x00\x00u\x00\x00\x00r\x00\x00\x00e\x00\x00\x00'
p5914
tp5915
Rp5916
sg5211
I492
sg5212
I371
sg5213
I0
sg5214
I6
sg5215
(lp5917
Vwooden
p5918
aVsmall 
p5919
aVhome
p5920
ag5920
ag5920
asg5075
I21
sa(dp5921
g5191
g5192
(g5196
S'\x01\x00\x00\x00\x00\x00\x00\x00'
p5922
tp5923
Rp5924
sg5202
g5192
(g5193
(S'U9'
p5925
I0
I1
tp5926
Rp5927
(I3
S'<'
p5928
NNNI36
I4
I8
tp5929
bS's\x00\x00\x00n\x00\x00\x00o\x00\x00\x00w\x00\x00\x00b\x00\x00\x00o\x00\x00\x00a\x00\x00\x00r\x00\x00\x00d\x00\x00\x00'
p5930
tp5931
Rp5932
sg5211
I280
sg5212
I125
sg5213
I207
sg5214
I149
sg5215
(lp5933
Vburgundy
p5934
ag5934
aVmulticolored
p5935
asg5075
I22
sa(dp5936
g5191
g5192
(g5196
S'\x01\x00\x00\x00\x00\x00\x00\x00'
p5937
tp5938
Rp5939
sg5202
g5192
(g5193
(S'U7'
p5940
I0
I1
tp5941
Rp5942
(I3
S'<'
p5943
NNNI28
I4
I8
tp5944
bS'g\x00\x00\x00o\x00\x00\x00g\x00\x00\x00g\x00\x00\x00l\x00\x00\x00e\x00\x00\x00s\x00\x00\x00'
p5945
tp5946
Rp5947
sg5211
I35
sg5212
I38
sg5213
I94
sg5214
I163
sg5215
(lp5948
Vold fashioned
p5949
ag5949
asg5075
I23
sa(dp5950
g5191
g5192
(g5196
S'\x01\x00\x00\x00\x00\x00\x00\x00'
p5951
tp5952
Rp5953
sg5202
g5192
(g5193
(S'U6'
p5954
I0
I1
tp5955
Rp5956
(I3
S'<'
p5957
NNNI24
I4
I8
tp5958
bS's\x00\x00\x00t\x00\x00\x00a\x00\x00\x00t\x00\x00\x00u\x00\x00\x00e\x00\x00\x00'
p5959
tp5960
Rp5961
sg5211
I278
sg5212
I325
sg5213
I2
sg5214
I147
sg5215
(lp5962
g5230
ag5230
asg5075
I24
sa(dp5963
g5191
g5192
(g5196
S'\x01\x00\x00\x00\x00\x00\x00\x00'
p5964
tp5965
Rp5966
sg5202
g5192
(g5193
(S'U4'
p5967
I0
I1
tp5968
Rp5969
(I3
S'<'
p5970
NNNI16
I4
I8
tp5971
bS'h\x00\x00\x00e\x00\x00\x00a\x00\x00\x00d\x00\x00\x00'
p5972
tp5973
Rp5974
sg5211
I58
sg5212
I57
sg5213
I80
sg5214
I148
sg5215
(lp5975
g5230
ag5230
asg5075
I25
sa(dp5976
g5191
g5192
(g5196
S'\x01\x00\x00\x00\x00\x00\x00\x00'
p5977
tp5978
Rp5979
sg5202
g5192
(g5193
(S'U3'
p5980
I0
I1
tp5981
Rp5982
(I3
S'<'
p5983
NNNI12
I4
I8
tp5984
bS'h\x00\x00\x00a\x00\x00\x00t\x00\x00\x00'
p5985
tp5986
Rp5987
sg5211
I95
sg5212
I74
sg5213
I66
sg5214
I132
sg5215
(lp5988
g5230
ag5230
asg5075
I26
sa(dp5989
g5191
g5192
(g5196
S'\x01\x00\x00\x00\x00\x00\x00\x00'
p5990
tp5991
Rp5992
sg5202
g5192
(g5193
(S'U6'
p5993
I0
I1
tp5994
Rp5995
(I3
S'<'
p5996
NNNI24
I4
I8
tp5997
bS's\x00\x00\x00t\x00\x00\x00a\x00\x00\x00t\x00\x00\x00u\x00\x00\x00e\x00\x00\x00'
p5998
tp5999
Rp6000
sg5211
I354
sg5212
I291
sg5213
I63
sg5214
I106
sg5215
(lp6001
g5230
ag5230
asg5075
I27
sa(dp6002
g5191
g5192
(g5196
S'\x01\x00\x00\x00\x00\x00\x00\x00'
p6003
tp6004
Rp6005
sg5202
g5192
(g5193
(S'U6'
p6006
I0
I1
tp6007
Rp6008
(I3
S'<'
p6009
NNNI24
I4
I8
tp6010
bS'c\x00\x00\x00l\x00\x00\x00o\x00\x00\x00u\x00\x00\x00d\x00\x00\x00s\x00\x00\x00'
p6011
tp6012
Rp6013
sg5211
I100
sg5212
I61
sg5213
I98
sg5214
I400
sg5215
(lp6014
g5230
asg5075
I28
sa(dp6015
g5191
g5192
(g5196
S'\x01\x00\x00\x00\x00\x00\x00\x00'
p6016
tp6017
Rp6018
sg5202
g5192
(g5193
(S'U3'
p6019
I0
I1
tp6020
Rp6021
(I3
S'<'
p6022
NNNI12
I4
I8
tp6023
bS's\x00\x00\x00k\x00\x00\x00y\x00\x00\x00'
p6024
tp6025
Rp6026
sg5211
I492
sg5212
I146
sg5213
I7
sg5214
I1
sg5215
(lp6027
g5230
ag5230
asg5075
I29
sa(dp6028
g5191
g5192
(g5196
S'\x01\x00\x00\x00\x00\x00\x00\x00'
p6029
tp6030
Rp6031
sg5202
g5192
(g5193
(S'U4'
p6032
I0
I1
tp6033
Rp6034
(I3
S'<'
p6035
NNNI16
I4
I8
tp6036
bS's\x00\x00\x00p\x00\x00\x00o\x00\x00\x00t\x00\x00\x00'
p6037
tp6038
Rp6039
sg5211
I72
sg5212
I30
sg5213
I10
sg5214
I18
sg5215
(lp6040
g5230
ag5230
asg5075
I30
sa(dp6041
g5191
g5192
(g5196
S'\x01\x00\x00\x00\x00\x00\x00\x00'
p6042
tp6043
Rp6044
sg5202
g5192
(g5193
(S'U8'
p6045
I0
I1
tp6046
Rp6047
(I3
S'<'
p6048
NNNI32
I4
I8
tp6049
bS'o\x00\x00\x00u\x00\x00\x00t\x00\x00\x00d\x00\x00\x00o\x00\x00\x00o\x00\x00\x00r\x00\x00\x00s\x00\x00\x00'
p6050
tp6051
Rp6052
sg5211
I465
sg5212
I310
sg5213
I9
sg5214
I34
sg5215
(lp6053
sg5075
I31
sasa(dp6054
g5062
(lp6055
(dp6056
g5065
g5136
sg5074
I0
sg5075
I1
sg5076
I1
sa(dp6057
g5065
g5116
sg5074
I1
sg5075
I1
sg5076
I2
sa(dp6058
g5065
(S'near'
p6059
S'are near'
p6060
S'near a'
p6061
S'near the'
p6062
S'are near a'
p6063
S'near an'
p6064
S'are near an'
p6065
S'is near'
p6066
S'are near the'
p6067
tp6068
sg5074
I2
sg5075
I1
sg5076
I3
sa(dp6069
g5065
g6068
sg5074
I3
sg5075
I1
sg5076
I5
sa(dp6070
g5065
(S'under'
p6071
S'under a'
p6072
S'are under'
p6073
S'are under a'
p6074
S'under an'
p6075
S'under the'
p6076
S'is under'
p6077
S'are under an'
p6078
S'is under the'
p6079
tp6080
sg5074
I4
sg5075
I1
sg5076
I6
sa(dp6081
g5065
g5136
sg5074
I5
sg5075
I1
sg5076
I8
sa(dp6082
g5065
(S'to left of'
p6083
S'are to left of'
p6084
S'to left of a'
p6085
S'are to left of a'
p6086
S'to left of an'
p6087
tp6088
sg5074
I6
sg5075
I1
sg5076
I10
sa(dp6089
g5065
g5607
sg5074
I7
sg5075
I1
sg5076
I13
sa(dp6090
g5065
(S'holding'
p6091
S'is holding a'
p6092
S'holding a'
p6093
S'holding an'
p6094
S'are holding'
p6095
S'holding the'
p6096
S'are holding a'
p6097
S'are holding an'
p6098
S'is holding'
p6099
tp6100
sg5074
I8
sg5075
I1
sg5076
I14
sa(dp6101
g5065
g6080
sg5074
I9
sg5075
I1
sg5076
I17
sa(dp6102
g5065
g6080
sg5074
I10
sg5075
I1
sg5076
I19
sa(dp6103
g5065
g6100
sg5074
I11
sg5075
I1
sg5076
I23
sa(dp6104
g5065
g5136
sg5074
I12
sg5075
I1
sg5076
I24
sa(dp6105
g5065
g5136
sg5074
I13
sg5075
I1
sg5076
I25
sa(dp6106
g5065
g5136
sg5074
I14
sg5075
I1
sg5076
I32
sa(dp6107
g5065
g5136
sg5074
I15
sg5075
I1
sg5076
I35
sa(dp6108
g5065
g6080
sg5074
I16
sg5075
I1
sg5076
I39
sasg5188
(lp6109
(dp6110
g5191
g5192
(g5196
S'\x01\x00\x00\x00\x00\x00\x00\x00'
p6111
tp6112
Rp6113
sg5202
g5192
(g5193
(S'U4'
p6114
I0
I1
tp6115
Rp6116
(I3
S'<'
p6117
NNNI16
I4
I8
tp6118
bS'c\x00\x00\x00o\x00\x00\x00r\x00\x00\x00d\x00\x00\x00'
p6119
tp6120
Rp6121
sg5211
I47
sg5212
I41
sg5213
I156
sg5214
I298
sg5215
(lp6122
Velectric
p6123
asg5075
I0
sa(dp6124
g5191
g5192
(g5196
S'\x01\x00\x00\x00\x00\x00\x00\x00'
p6125
tp6126
Rp6127
sg5202
g5192
(g5193
(S'U4'
p6128
I0
I1
tp6129
Rp6130
(I3
S'<'
p6131
NNNI16
I4
I8
tp6132
bS'v\x00\x00\x00a\x00\x00\x00s\x00\x00\x00e\x00\x00\x00'
p6133
tp6134
Rp6135
sg5211
I50
sg5212
I89
sg5213
I156
sg5214
I80
sg5215
(lp6136
g5230
asg5075
I1
sa(dp6137
g5191
g5192
(g5196
S'\x01\x00\x00\x00\x00\x00\x00\x00'
p6138
tp6139
Rp6140
sg5202
g5192
(g5193
(S'U4'
p6141
I0
I1
tp6142
Rp6143
(I3
S'<'
p6144
NNNI16
I4
I8
tp6145
bS'r\x00\x00\x00o\x00\x00\x00s\x00\x00\x00e\x00\x00\x00'
p6146
tp6147
Rp6148
sg5211
I55
sg5212
I101
sg5213
I23
sg5214
I38
sg5215
(lp6149
g5230
asg5075
I2
sa(dp6150
g5191
g5192
(g5196
S'\x01\x00\x00\x00\x00\x00\x00\x00'
p6151
tp6152
Rp6153
sg5202
g5192
(g5193
(S'U3'
p6154
I0
I1
tp6155
Rp6156
(I3
S'<'
p6157
NNNI12
I4
I8
tp6158
bS'c\x00\x00\x00u\x00\x00\x00p\x00\x00\x00'
p6159
tp6160
Rp6161
sg5211
I48
sg5212
I49
sg5213
I202
sg5214
I35
sg5215
(lp6162
g5230
asg5075
I3
sa(dp6163
g5191
g5192
(g5196
S'\x01\x00\x00\x00\x00\x00\x00\x00'
p6164
tp6165
Rp6166
sg5202
g5192
(g5193
(S'U6'
p6167
I0
I1
tp6168
Rp6169
(I3
S'<'
p6170
NNNI24
I4
I8
tp6171
bS's\x00\x00\x00a\x00\x00\x00u\x00\x00\x00c\x00\x00\x00e\x00\x00\x00r\x00\x00\x00'
p6172
tp6173
Rp6174
sg5211
I68
sg5212
I45
sg5213
I307
sg5214
I135
sg5215
(lp6175
g5535
asg5075
I4
sa(dp6176
g5191
g5192
(g5196
S'\x01\x00\x00\x00\x00\x00\x00\x00'
p6177
tp6178
Rp6179
sg5202
g5192
(g5193
(S'U3'
p6180
I0
I1
tp6181
Rp6182
(I3
S'<'
p6183
NNNI12
I4
I8
tp6184
bS'c\x00\x00\x00u\x00\x00\x00p\x00\x00\x00'
p6185
tp6186
Rp6187
sg5211
I56
sg5212
I66
sg5213
I271
sg5214
I157
sg5215
(lp6188
g5230
asg5075
I5
sa(dp6189
g5191
g5192
(g5196
S'\x01\x00\x00\x00\x00\x00\x00\x00'
p6190
tp6191
Rp6192
sg5202
g5192
(g5193
(S'U5'
p6193
I0
I1
tp6194
Rp6195
(I3
S'<'
p6196
NNNI20
I4
I8
tp6197
bS'p\x00\x00\x00l\x00\x00\x00a\x00\x00\x00t\x00\x00\x00e\x00\x00\x00'
p6198
tp6199
Rp6200
sg5211
I43
sg5212
I99
sg5213
I377
sg5214
I75
sg5215
(lp6201
g5230
asg5075
I6
sa(dp6202
g5191
g5192
(g5196
S'\x01\x00\x00\x00\x00\x00\x00\x00'
p6203
tp6204
Rp6205
sg5202
g5192
(g5193
(S'U4'
p6206
I0
I1
tp6207
Rp6208
(I3
S'<'
p6209
NNNI16
I4
I8
tp6210
bS'c\x00\x00\x00a\x00\x00\x00k\x00\x00\x00e\x00\x00\x00'
p6211
tp6212
Rp6213
sg5211
I37
sg5212
I101
sg5213
I375
sg5214
I122
sg5215
(lp6214
g5230
asg5075
I7
sa(dp6215
g5191
g5192
(g5196
S'\x01\x00\x00\x00\x00\x00\x00\x00'
p6216
tp6217
Rp6218
sg5202
g5192
(g5193
(S'U8'
p6219
I0
I1
tp6220
Rp6221
(I3
S'<'
p6222
NNNI32
I4
I8
tp6223
bS'm\x00\x00\x00a\x00\x00\x00g\x00\x00\x00a\x00\x00\x00z\x00\x00\x00i\x00\x00\x00n\x00\x00\x00e\x00\x00\x00'
p6224
tp6225
Rp6226
sg5211
I126
sg5212
I138
sg5213
I215
sg5214
I217
sg5215
(lp6227
Vstack
p6228
asg5075
I8
sa(dp6229
g5191
g5192
(g5196
S'\x01\x00\x00\x00\x00\x00\x00\x00'
p6230
tp6231
Rp6232
sg5202
g5192
(g5193
(S'U4'
p6233
I0
I1
tp6234
Rp6235
(I3
S'<'
p6236
NNNI16
I4
I8
tp6237
bS's\x00\x00\x00e\x00\x00\x00a\x00\x00\x00t\x00\x00\x00'
p6238
tp6239
Rp6240
sg5211
I125
sg5212
I62
sg5213
I147
sg5214
I127
sg5215
(lp6241
g5535
asg5075
I9
sa(dp6242
g5191
g5192
(g5196
S'\x01\x00\x00\x00\x00\x00\x00\x00'
p6243
tp6244
Rp6245
sg5202
g5192
(g5193
(S'U5'
p6246
I0
I1
tp6247
Rp6248
(I3
S'<'
p6249
NNNI20
I4
I8
tp6250
bS'c\x00\x00\x00h\x00\x00\x00a\x00\x00\x00i\x00\x00\x00r\x00\x00\x00'
p6251
tp6252
Rp6253
sg5211
I178
sg5212
I177
sg5213
I24
sg5214
I87
sg5215
(lp6254
g5230
asg5075
I10
sa(dp6255
g5191
g5192
(g5196
S'\x01\x00\x00\x00\x00\x00\x00\x00'
p6256
tp6257
Rp6258
sg5202
g5192
(g5193
(S'U7'
p6259
I0
I1
tp6260
Rp6261
(I3
S'<'
p6262
NNNI28
I4
I8
tp6263
bS'r\x00\x00\x00o\x00\x00\x00o\x00\x00\x00s\x00\x00\x00t\x00\x00\x00e\x00\x00\x00r\x00\x00\x00'
p6264
tp6265
Rp6266
sg5211
I90
sg5212
I101
sg5213
I238
sg5214
I242
sg5215
(lp6267
sg5075
I11
sa(dp6268
g5191
g5192
(g5196
S'\x01\x00\x00\x00\x00\x00\x00\x00'
p6269
tp6270
Rp6271
sg5202
g5192
(g5193
(S'U7'
p6272
I0
I1
tp6273
Rp6274
(I3
S'<'
p6275
NNNI28
I4
I8
tp6276
bS'c\x00\x00\x00r\x00\x00\x00e\x00\x00\x00a\x00\x00\x00m\x00\x00\x00e\x00\x00\x00r\x00\x00\x00'
p6277
tp6278
Rp6279
sg5211
I27
sg5212
I13
sg5213
I360
sg5214
I239
sg5215
(lp6280
sg5075
I12
sa(dp6281
g5191
g5192
(g5196
S'\x01\x00\x00\x00\x00\x00\x00\x00'
p6282
tp6283
Rp6284
sg5202
g5192
(g5193
(S'U9'
p6285
I0
I1
tp6286
Rp6287
(I3
S'<'
p6288
NNNI36
I4
I8
tp6289
bS'c\x00\x00\x00o\x00\x00\x00n\x00\x00\x00t\x00\x00\x00a\x00\x00\x00i\x00\x00\x00n\x00\x00\x00e\x00\x00\x00r\x00\x00\x00'
p6290
tp6291
Rp6292
sg5211
I56
sg5212
I85
sg5213
I338
sg5214
I225
sg5215
(lp6293
g5230
asg5075
I13
sa(dp6294
g5191
g5192
(g5196
S'\x01\x00\x00\x00\x00\x00\x00\x00'
p6295
tp6296
Rp6297
sg5202
g5192
(g5193
(S'U5'
p6298
I0
I1
tp6299
Rp6300
(I3
S'<'
p6301
NNNI20
I4
I8
tp6302
bS't\x00\x00\x00a\x00\x00\x00b\x00\x00\x00l\x00\x00\x00e\x00\x00\x00'
p6303
tp6304
Rp6305
sg5211
I84
sg5212
I91
sg5213
I261
sg5214
I28
sg5215
(lp6306
Vskinny
p6307
asg5075
I14
sa(dp6308
g5191
g5192
(g5196
S'\x01\x00\x00\x00\x00\x00\x00\x00'
p6309
tp6310
Rp6311
sg5202
g5192
(g5193
(S'U15'
p6312
I0
I1
tp6313
Rp6314
(I3
S'<'
p6315
NNNI60
I4
I8
tp6316
bS's\x00\x00\x00o\x00\x00\x00l\x00\x00\x00d\x00\x00\x00i\x00\x00\x00e\x00\x00\x00r\x00\x00\x00 \x00\x00\x00p\x00\x00\x00i\x00\x00\x00c\x00\x00\x00t\x00\x00\x00u\x00\x00\x00r\x00\x00\x00e\x00\x00\x00'
p6317
tp6318
Rp6319
sg5211
I43
sg5212
I25
sg5213
I7
sg5214
I288
sg5215
(lp6320
sg5075
I15
sa(dp6321
g5191
g5192
(g5196
S'\x01\x00\x00\x00\x00\x00\x00\x00'
p6322
tp6323
Rp6324
sg5202
g5192
(g5193
(S'U9'
p6325
I0
I1
tp6326
Rp6327
(I3
S'<'
p6328
NNNI36
I4
I8
tp6329
bS'n\x00\x00\x00e\x00\x00\x00w\x00\x00\x00s\x00\x00\x00p\x00\x00\x00a\x00\x00\x00p\x00\x00\x00e\x00\x00\x00r\x00\x00\x00'
p6330
tp6331
Rp6332
sg5211
I94
sg5212
I33
sg5213
I4
sg5214
I275
sg5215
(lp6333
Vlaying
p6334
asg5075
I16
sa(dp6335
g5191
g5192
(g5196
S'\x01\x00\x00\x00\x00\x00\x00\x00'
p6336
tp6337
Rp6338
sg5202
g5192
(g5193
(S'U5'
p6339
I0
I1
tp6340
Rp6341
(I3
S'<'
p6342
NNNI20
I4
I8
tp6343
bS'p\x00\x00\x00l\x00\x00\x00a\x00\x00\x00t\x00\x00\x00e\x00\x00\x00'
p6344
tp6345
Rp6346
sg5211
I141
sg5212
I144
sg5213
I354
sg5214
I66
sg5215
(lp6347
g5230
asg5075
I17
sa(dp6348
g5191
g5192
(g5196
S'\x01\x00\x00\x00\x00\x00\x00\x00'
p6349
tp6350
Rp6351
sg5202
g5192
(g5193
(S'U9'
p6352
I0
I1
tp6353
Rp6354
(I3
S'<'
p6355
NNNI36
I4
I8
tp6356
bS'p\x00\x00\x00i\x00\x00\x00e\x00\x00\x00 \x00\x00\x00s\x00\x00\x00l\x00\x00\x00i\x00\x00\x00c\x00\x00\x00e\x00\x00\x00'
p6357
tp6358
Rp6359
sg5211
I47
sg5212
I100
sg5213
I369
sg5214
I119
sg5215
(lp6360
sg5075
I18
sa(dp6361
g5191
g5192
(g5196
S'\x01\x00\x00\x00\x00\x00\x00\x00'
p6362
tp6363
Rp6364
sg5202
g5192
(g5193
(S'U5'
p6365
I0
I1
tp6366
Rp6367
(I3
S'<'
p6368
NNNI20
I4
I8
tp6369
bS'p\x00\x00\x00l\x00\x00\x00a\x00\x00\x00t\x00\x00\x00e\x00\x00\x00'
p6370
tp6371
Rp6372
sg5211
I35
sg5212
I96
sg5213
I382
sg5214
I78
sg5215
(lp6373
g5230
asg5075
I19
sa(dp6374
g5191
g5192
(g5196
S'\x01\x00\x00\x00\x00\x00\x00\x00'
p6375
tp6376
Rp6377
sg5202
g5192
(g5193
(S'U5'
p6378
I0
I1
tp6379
Rp6380
(I3
S'<'
p6381
NNNI20
I4
I8
tp6382
bS'c\x00\x00\x00r\x00\x00\x00e\x00\x00\x00a\x00\x00\x00m\x00\x00\x00'
p6383
tp6384
Rp6385
sg5211
I35
sg5212
I42
sg5213
I352
sg5214
I239
sg5215
(lp6386
Vfoamy
p6387
asg5075
I20
sa(dp6388
g5191
g5192
(g5196
S'\x01\x00\x00\x00\x00\x00\x00\x00'
p6389
tp6390
Rp6391
sg5202
g5192
(g5193
(S'U7'
p6392
I0
I1
tp6393
Rp6394
(I3
S'<'
p6395
NNNI28
I4
I8
tp6396
bS'c\x00\x00\x00r\x00\x00\x00e\x00\x00\x00a\x00\x00\x00m\x00\x00\x00e\x00\x00\x00r\x00\x00\x00'
p6397
tp6398
Rp6399
sg5211
I58
sg5212
I79
sg5213
I341
sg5214
I220
sg5215
(lp6400
sg5075
I21
sa(dp6401
g5191
g5192
(g5196
S'\x01\x00\x00\x00\x00\x00\x00\x00'
p6402
tp6403
Rp6404
sg5202
g5192
(g5193
(S'U5'
p6405
I0
I1
tp6406
Rp6407
(I3
S'<'
p6408
NNNI20
I4
I8
tp6409
bS'c\x00\x00\x00r\x00\x00\x00e\x00\x00\x00a\x00\x00\x00m\x00\x00\x00'
p6410
tp6411
Rp6412
sg5211
I19
sg5212
I28
sg5213
I357
sg5214
I243
sg5215
(lp6413
g6387
asg5075
I22
sa(dp6414
g5191
g5192
(g5196
S'\x01\x00\x00\x00\x00\x00\x00\x00'
p6415
tp6416
Rp6417
sg5202
g5192
(g5193
(S'U5'
p6418
I0
I1
tp6419
Rp6420
(I3
S'<'
p6421
NNNI20
I4
I8
tp6422
bS't\x00\x00\x00a\x00\x00\x00b\x00\x00\x00l\x00\x00\x00e\x00\x00\x00'
p6423
tp6424
Rp6425
sg5211
I40
sg5212
I190
sg5213
I265
sg5214
I28
sg5215
(lp6426
g5230
asg5075
I23
sa(dp6427
g5191
g5192
(g5196
S'\x01\x00\x00\x00\x00\x00\x00\x00'
p6428
tp6429
Rp6430
sg5202
g5192
(g5193
(S'U8'
p6431
I0
I1
tp6432
Rp6433
(I3
S'<'
p6434
NNNI32
I4
I8
tp6435
bS'm\x00\x00\x00a\x00\x00\x00g\x00\x00\x00a\x00\x00\x00z\x00\x00\x00i\x00\x00\x00n\x00\x00\x00e\x00\x00\x00'
p6436
tp6437
Rp6438
sg5211
I136
sg5212
I144
sg5213
I207
sg5214
I213
sg5215
(lp6439
g6228
asg5075
I24
sa(dp6440
g5191
g5192
(g5196
S'\x01\x00\x00\x00\x00\x00\x00\x00'
p6441
tp6442
Rp6443
sg5202
g5192
(g5193
(S'U4'
p6444
I0
I1
tp6445
Rp6446
(I3
S'<'
p6447
NNNI16
I4
I8
tp6448
bS'v\x00\x00\x00a\x00\x00\x00s\x00\x00\x00e\x00\x00\x00'
p6449
tp6450
Rp6451
sg5211
I33
sg5212
I88
sg5213
I159
sg5214
I88
sg5215
(lp6452
g5230
asg5075
I25
sa(dp6453
g5191
g5192
(g5196
S'\x01\x00\x00\x00\x00\x00\x00\x00'
p6454
tp6455
Rp6456
sg5202
g5192
(g5193
(S'U5'
p6457
I0
I1
tp6458
Rp6459
(I3
S'<'
p6460
NNNI20
I4
I8
tp6461
bS't\x00\x00\x00u\x00\x00\x00l\x00\x00\x00i\x00\x00\x00p\x00\x00\x00'
p6462
tp6463
Rp6464
sg5211
I43
sg5212
I131
sg5213
I24
sg5214
I40
sg5215
(lp6465
sg5075
I26
sa(dp6466
g5191
g5192
(g5196
S'\x01\x00\x00\x00\x00\x00\x00\x00'
p6467
tp6468
Rp6469
sg5202
g5192
(g5193
(S'U4'
p6470
I0
I1
tp6471
Rp6472
(I3
S'<'
p6473
NNNI16
I4
I8
tp6474
bS'f\x00\x00\x00o\x00\x00\x00r\x00\x00\x00k\x00\x00\x00'
p6475
tp6476
Rp6477
sg5211
I69
sg5212
I57
sg5213
I415
sg5214
I159
sg5215
(lp6478
Vresting
p6479
asg5075
I27
sa(dp6480
g5191
g5192
(g5196
S'\x01\x00\x00\x00\x00\x00\x00\x00'
p6481
tp6482
Rp6483
sg5202
g5192
(g5193
(S'U6'
p6484
I0
I1
tp6485
Rp6486
(I3
S'<'
p6487
NNNI24
I4
I8
tp6488
bS's\x00\x00\x00a\x00\x00\x00u\x00\x00\x00c\x00\x00\x00e\x00\x00\x00r\x00\x00\x00'
p6489
tp6490
Rp6491
sg5211
I47
sg5212
I39
sg5213
I307
sg5214
I137
sg5215
(lp6492
g5535
asg5075
I28
sa(dp6493
g5191
g5192
(g5196
S'\x01\x00\x00\x00\x00\x00\x00\x00'
p6494
tp6495
Rp6496
sg5202
g5192
(g5193
(S'U6'
p6497
I0
I1
tp6498
Rp6499
(I3
S'<'
p6500
NNNI24
I4
I8
tp6501
bS'c\x00\x00\x00o\x00\x00\x00f\x00\x00\x00f\x00\x00\x00e\x00\x00\x00e\x00\x00\x00'
p6502
tp6503
Rp6504
sg5211
I56
sg5212
I70
sg5213
I261
sg5214
I153
sg5215
(lp6505
Vwhite and black
p6506
asg5075
I29
sa(dp6507
g5191
g5192
(g5196
S'\x01\x00\x00\x00\x00\x00\x00\x00'
p6508
tp6509
Rp6510
sg5202
g5192
(g5193
(S'U6'
p6511
I0
I1
tp6512
Rp6513
(I3
S'<'
p6514
NNNI24
I4
I8
tp6515
bS's\x00\x00\x00a\x00\x00\x00u\x00\x00\x00c\x00\x00\x00e\x00\x00\x00r\x00\x00\x00'
p6516
tp6517
Rp6518
sg5211
I43
sg5212
I44
sg5213
I300
sg5214
I135
sg5215
(lp6519
g5535
asg5075
I30
sa(dp6520
g5191
g5192
(g5196
S'\x01\x00\x00\x00\x00\x00\x00\x00'
p6521
tp6522
Rp6523
sg5202
g5192
(g5193
(S'U5'
p6524
I0
I1
tp6525
Rp6526
(I3
S'<'
p6527
NNNI20
I4
I8
tp6528
bS's\x00\x00\x00p\x00\x00\x00o\x00\x00\x00o\x00\x00\x00n\x00\x00\x00'
p6529
tp6530
Rp6531
sg5211
I15
sg5212
I71
sg5213
I284
sg5214
I210
sg5215
(lp6532
g5230
asg5075
I31
sa(dp6533
g5191
g5192
(g5196
S'\x01\x00\x00\x00\x00\x00\x00\x00'
p6534
tp6535
Rp6536
sg5202
g5192
(g5193
(S'U8'
p6537
I0
I1
tp6538
Rp6539
(I3
S'<'
p6540
NNNI32
I4
I8
tp6541
bS'm\x00\x00\x00a\x00\x00\x00g\x00\x00\x00a\x00\x00\x00z\x00\x00\x00i\x00\x00\x00n\x00\x00\x00e\x00\x00\x00'
p6542
tp6543
Rp6544
sg5211
I146
sg5212
I156
sg5213
I199
sg5214
I204
sg5215
(lp6545
g6228
asg5075
I32
sa(dp6546
g5191
g5192
(g5196
S'\x01\x00\x00\x00\x00\x00\x00\x00'
p6547
tp6548
Rp6549
sg5202
g5192
(g5193
(S'U13'
p6550
I0
I1
tp6551
Rp6552
(I3
S'<'
p6553
NNNI52
I4
I8
tp6554
bS'w\x00\x00\x00h\x00\x00\x00i\x00\x00\x00p\x00\x00\x00p\x00\x00\x00e\x00\x00\x00d\x00\x00\x00 \x00\x00\x00c\x00\x00\x00r\x00\x00\x00e\x00\x00\x00a\x00\x00\x00m\x00\x00\x00'
p6555
tp6556
Rp6557
sg5211
I20
sg5212
I21
sg5213
I383
sg5214
I129
sg5215
(lp6558
sg5075
I33
sa(dp6559
g5191
g5192
(g5196
S'\x01\x00\x00\x00\x00\x00\x00\x00'
p6560
tp6561
Rp6562
sg5202
g5192
(g5193
(S'U9'
p6563
I0
I1
tp6564
Rp6565
(I3
S'<'
p6566
NNNI36
I4
I8
tp6567
bS'f\x00\x00\x00l\x00\x00\x00o\x00\x00\x00w\x00\x00\x00e\x00\x00\x00r\x00\x00\x00p\x00\x00\x00o\x00\x00\x00t\x00\x00\x00'
p6568
tp6569
Rp6570
sg5211
I44
sg5212
I48
sg5213
I202
sg5214
I37
sg5215
(lp6571
sg5075
I34
sa(dp6572
g5191
g5192
(g5196
S'\x01\x00\x00\x00\x00\x00\x00\x00'
p6573
tp6574
Rp6575
sg5202
g5192
(g5193
(S'U4'
p6576
I0
I1
tp6577
Rp6578
(I3
S'<'
p6579
NNNI16
I4
I8
tp6580
bS'v\x00\x00\x00a\x00\x00\x00s\x00\x00\x00e\x00\x00\x00'
p6581
tp6582
Rp6583
sg5211
I36
sg5212
I87
sg5213
I155
sg5214
I89
sg5215
(lp6584
Vnice
p6585
asg5075
I35
sa(dp6586
g5191
g5192
(g5196
S'\x01\x00\x00\x00\x00\x00\x00\x00'
p6587
tp6588
Rp6589
sg5202
g5192
(g5193
(S'U5'
p6590
I0
I1
tp6591
Rp6592
(I3
S'<'
p6593
NNNI20
I4
I8
tp6594
bS't\x00\x00\x00u\x00\x00\x00l\x00\x00\x00i\x00\x00\x00p\x00\x00\x00'
p6595
tp6596
Rp6597
sg5211
I57
sg5212
I129
sg5213
I27
sg5214
I39
sg5215
(lp6598
sg5075
I36
sa(dp6599
g5191
g5192
(g5196
S'\x01\x00\x00\x00\x00\x00\x00\x00'
p6600
tp6601
Rp6602
sg5202
g5192
(g5193
(S'U6'
p6603
I0
I1
tp6604
Rp6605
(I3
S'<'
p6606
NNNI24
I4
I8
tp6607
bS's\x00\x00\x00a\x00\x00\x00u\x00\x00\x00c\x00\x00\x00e\x00\x00\x00r\x00\x00\x00'
p6608
tp6609
Rp6610
sg5211
I42
sg5212
I51
sg5213
I292
sg5214
I135
sg5215
(lp6611
g5535
asg5075
I37
sa(dp6612
g5191
g5192
(g5196
S'\x01\x00\x00\x00\x00\x00\x00\x00'
p6613
tp6614
Rp6615
sg5202
g5192
(g5193
(S'U6'
p6616
I0
I1
tp6617
Rp6618
(I3
S'<'
p6619
NNNI24
I4
I8
tp6620
bS'c\x00\x00\x00o\x00\x00\x00f\x00\x00\x00f\x00\x00\x00e\x00\x00\x00e\x00\x00\x00'
p6621
tp6622
Rp6623
sg5211
I39
sg5212
I30
sg5213
I274
sg5214
I165
sg5215
(lp6624
g6506
asg5075
I38
sa(dp6625
g5191
g5192
(g5196
S'\x01\x00\x00\x00\x00\x00\x00\x00'
p6626
tp6627
Rp6628
sg5202
g5192
(g5193
(S'U5'
p6629
I0
I1
tp6630
Rp6631
(I3
S'<'
p6632
NNNI20
I4
I8
tp6633
bS'p\x00\x00\x00l\x00\x00\x00a\x00\x00\x00t\x00\x00\x00e\x00\x00\x00'
p6634
tp6635
Rp6636
sg5211
I50
sg5212
I98
sg5213
I377
sg5214
I69
sg5215
(lp6637
g5230
asg5075
I39
sa(dp6638
g5191
g5192
(g5196
S'\x01\x00\x00\x00\x00\x00\x00\x00'
p6639
tp6640
Rp6641
sg5202
g5192
(g5193
(S'U3'
p6642
I0
I1
tp6643
Rp6644
(I3
S'<'
p6645
NNNI12
I4
I8
tp6646
bS'p\x00\x00\x00i\x00\x00\x00e\x00\x00\x00'
p6647
tp6648
Rp6649
sg5211
I34
sg5212
I91
sg5213
I379
sg5214
I121
sg5215
(lp6650
Vslice
p6651
asg5075
I40
sa(dp6652
g5191
g5192
(g5196
S'\x01\x00\x00\x00\x00\x00\x00\x00'
p6653
tp6654
Rp6655
sg5202
g5192
(g5193
(S'U3'
p6656
I0
I1
tp6657
Rp6658
(I3
S'<'
p6659
NNNI12
I4
I8
tp6660
bS'j\x00\x00\x00u\x00\x00\x00g\x00\x00\x00'
p6661
tp6662
Rp6663
sg5211
I47
sg5212
I74
sg5213
I341
sg5214
I225
sg5215
(lp6664
g5230
asg5075
I41
sa(dp6665
g5191
g5192
(g5196
S'\x01\x00\x00\x00\x00\x00\x00\x00'
p6666
tp6667
Rp6668
sg5202
g5192
(g5193
(S'U5'
p6669
I0
I1
tp6670
Rp6671
(I3
S'<'
p6672
NNNI20
I4
I8
tp6673
bS'c\x00\x00\x00r\x00\x00\x00e\x00\x00\x00a\x00\x00\x00m\x00\x00\x00'
p6674
tp6675
Rp6676
sg5211
I28
sg5212
I25
sg5213
I361
sg5214
I238
sg5215
(lp6677
g6387
asg5075
I42
sa(dp6678
g5191
g5192
(g5196
S'\x01\x00\x00\x00\x00\x00\x00\x00'
p6679
tp6680
Rp6681
sg5202
g5192
(g5193
(S'U8'
p6682
I0
I1
tp6683
Rp6684
(I3
S'<'
p6685
NNNI32
I4
I8
tp6686
bS'm\x00\x00\x00a\x00\x00\x00g\x00\x00\x00a\x00\x00\x00z\x00\x00\x00i\x00\x00\x00n\x00\x00\x00e\x00\x00\x00'
p6687
tp6688
Rp6689
sg5211
I148
sg5212
I152
sg5213
I206
sg5214
I208
sg5215
(lp6690
sg5075
I43
sasa(dp6691
g5062
(lp6692
(dp6693
g5065
g5136
sg5074
I0
sg5075
I1
sg5076
I0
sa(dp6694
g5065
(S'lying in'
p6695
S'are lying in a'
p6696
S'are lying in'
p6697
S'lying in a'
p6698
tp6699
sg5074
I1
sg5075
I16
sg5076
I0
sa(dp6700
g5065
g6699
sg5074
I2
sg5075
I16
sg5076
I0
sa(dp6701
g5065
g6068
sg5074
I3
sg5075
I9
sg5076
I0
sa(dp6702
g5065
g6068
sg5074
I4
sg5075
I9
sg5076
I0
sa(dp6703
g5065
(S'inside'
p6704
S'inside a'
p6705
S'are inside'
p6706
S'are inside a'
p6707
S'inside an'
p6708
S'inside the'
p6709
S'is inside'
p6710
tp6711
sg5074
I5
sg5075
I9
sg5076
I1
sa(dp6712
g5065
g6100
sg5074
I6
sg5075
I8
sg5076
I1
sa(dp6713
g5065
g6100
sg5074
I7
sg5075
I8
sg5076
I1
sa(dp6714
g5065
g5136
sg5074
I8
sg5075
I16
sg5076
I1
sa(dp6715
g5065
g5136
sg5074
I9
sg5075
I16
sg5076
I1
sa(dp6716
g5065
g5181
sg5074
I10
sg5075
I16
sg5076
I2
sa(dp6717
g5065
g5579
sg5074
I11
sg5075
I9
sg5076
I5
sa(dp6718
g5065
(S'hanging from'
p6719
S'are hanging from'
p6720
S'hanging from a'
p6721
S'are hanging from a'
p6722
S'hanging from the'
p6723
tp6724
sg5074
I12
sg5075
I8
sg5076
I5
sa(dp6725
g5065
g6724
sg5074
I13
sg5075
I8
sg5076
I5
sa(dp6726
g5065
g5607
sg5074
I14
sg5075
I9
sg5076
I8
sa(dp6727
g5065
g6068
sg5074
I15
sg5075
I2
sg5076
I8
sa(dp6728
g5065
g6711
sg5074
I16
sg5075
I9
sg5076
I13
sa(dp6729
g5065
(S'to'
p6730
S'to a'
p6731
S'are to'
p6732
S'to an'
p6733
tp6734
sg5074
I17
sg5075
I9
sg5076
I16
sa(dp6735
g5065
g5607
sg5074
I18
sg5075
I0
sg5076
I16
sa(dp6736
g5065
g5073
sg5074
I19
sg5075
I8
sg5076
I17
sa(dp6737
g5065
g5073
sg5074
I20
sg5075
I8
sg5076
I17
sa(dp6738
g5065
g5181
sg5074
I21
sg5075
I16
sg5076
I17
sa(dp6739
g5065
g5181
sg5074
I22
sg5075
I16
sg5076
I17
sasg5188
(lp6740
(dp6741
g5191
g5192
(g5196
S'\x01\x00\x00\x00\x00\x00\x00\x00'
p6742
tp6743
Rp6744
sg5202
g5192
(g5193
(S'U3'
p6745
I0
I1
tp6746
Rp6747
(I3
S'<'
p6748
NNNI12
I4
I8
tp6749
bS'c\x00\x00\x00a\x00\x00\x00t\x00\x00\x00'
p6750
tp6751
Rp6752
sg5211
I148
sg5212
I213
sg5213
I14
sg5214
I137
sg5215
(lp6753
g5230
ag5230
ag5230
ag5230
ag5230
asg5075
I0
sa(dp6754
g5191
g5192
(g5196
S'\x01\x00\x00\x00\x00\x00\x00\x00'
p6755
tp6756
Rp6757
sg5202
g5192
(g5193
(S'U5'
p6758
I0
I1
tp6759
Rp6760
(I3
S'<'
p6761
NNNI20
I4
I8
tp6762
bS'w\x00\x00\x00o\x00\x00\x00m\x00\x00\x00a\x00\x00\x00n\x00\x00\x00'
p6763
tp6764
Rp6765
sg5211
I341
sg5212
I376
sg5213
I51
sg5214
I2
sg5215
(lp6766
g5949
ag5949
ag5949
ag5949
aVcrouching
p6767
asg5075
I1
sa(dp6768
g5191
g5192
(g5196
S'\x01\x00\x00\x00\x00\x00\x00\x00'
p6769
tp6770
Rp6771
sg5202
g5192
(g5193
(S'U5'
p6772
I0
I1
tp6773
Rp6774
(I3
S'<'
p6775
NNNI20
I4
I8
tp6776
bS'h\x00\x00\x00a\x00\x00\x00n\x00\x00\x00d\x00\x00\x00s\x00\x00\x00'
p6777
tp6778
Rp6779
sg5211
I137
sg5212
I145
sg5213
I250
sg5214
I25
sg5215
(lp6780
g5445
ag5445
ag5445
asg5075
I2
sa(dp6781
g5191
g5192
(g5196
S'\x01\x00\x00\x00\x00\x00\x00\x00'
p6782
tp6783
Rp6784
sg5202
g5192
(g5193
(S'U10'
p6785
I0
I1
tp6786
Rp6787
(I3
S'<'
p6788
NNNI40
I4
I8
tp6789
bS's\x00\x00\x00m\x00\x00\x00a\x00\x00\x00r\x00\x00\x00t\x00\x00\x00p\x00\x00\x00h\x00\x00\x00o\x00\x00\x00n\x00\x00\x00e\x00\x00\x00'
p6790
tp6791
Rp6792
sg5211
I66
sg5212
I116
sg5213
I220
sg5214
I57
sg5215
(lp6793
sg5075
I3
sa(dp6794
g5191
g5192
(g5196
S'\x01\x00\x00\x00\x00\x00\x00\x00'
p6795
tp6796
Rp6797
sg5202
g5192
(g5193
(S'U6'
p6798
I0
I1
tp6799
Rp6800
(I3
S'<'
p6801
NNNI24
I4
I8
tp6802
bS'c\x00\x00\x00a\x00\x00\x00m\x00\x00\x00e\x00\x00\x00r\x00\x00\x00a\x00\x00\x00'
p6803
tp6804
Rp6805
sg5211
I12
sg5212
I14
sg5213
I227
sg5214
I105
sg5215
(lp6806
g5230
ag5230
asg5075
I4
sa(dp6807
g5191
g5192
(g5196
S'\x01\x00\x00\x00\x00\x00\x00\x00'
p6808
tp6809
Rp6810
sg5202
g5192
(g5193
(S'U4'
p6811
I0
I1
tp6812
Rp6813
(I3
S'<'
p6814
NNNI16
I4
I8
tp6815
bS'r\x00\x00\x00o\x00\x00\x00b\x00\x00\x00e\x00\x00\x00'
p6816
tp6817
Rp6818
sg5211
I345
sg5212
I240
sg5213
I188
sg5214
I2
sg5215
(lp6819
Vtied
p6820
ag6820
ag6820
ag6820
ag6820
asg5075
I5
sa(dp6821
g5191
g5192
(g5196
S'\x01\x00\x00\x00\x00\x00\x00\x00'
p6822
tp6823
Rp6824
sg5202
g5192
(g5193
(S'U4'
p6825
I0
I1
tp6826
Rp6827
(I3
S'<'
p6828
NNNI16
I4
I8
tp6829
bS'r\x00\x00\x00i\x00\x00\x00n\x00\x00\x00g\x00\x00\x00'
p6830
tp6831
Rp6832
sg5211
I11
sg5212
I22
sg5213
I312
sg5214
I88
sg5215
(lp6833
g6506
asg5075
I6
sa(dp6834
g5191
g5192
(g5196
S'\x01\x00\x00\x00\x00\x00\x00\x00'
p6835
tp6836
Rp6837
sg5202
g5192
(g5193
(S'U7'
p6838
I0
I1
tp6839
Rp6840
(I3
S'<'
p6841
NNNI28
I4
I8
tp6842
bS'g\x00\x00\x00l\x00\x00\x00a\x00\x00\x00s\x00\x00\x00s\x00\x00\x00e\x00\x00\x00s\x00\x00\x00'
p6843
tp6844
Rp6845
sg5211
I110
sg5212
I33
sg5213
I133
sg5214
I55
sg5215
(lp6846
g5949
ag5949
ag5949
ag5949
ag5949
asg5075
I7
sa(dp6847
g5191
g5192
(g5196
S'\x01\x00\x00\x00\x00\x00\x00\x00'
p6848
tp6849
Rp6850
sg5202
g5192
(g5193
(S'U4'
p6851
I0
I1
tp6852
Rp6853
(I3
S'<'
p6854
NNNI16
I4
I8
tp6855
bS'd\x00\x00\x00o\x00\x00\x00o\x00\x00\x00r\x00\x00\x00'
p6856
tp6857
Rp6858
sg5211
I30
sg5212
I280
sg5213
I0
sg5214
I16
sg5215
(lp6859
g5230
ag5230
ag5230
ag5230
ag5230
asg5075
I8
sa(dp6860
g5191
g5192
(g5196
S'\x01\x00\x00\x00\x00\x00\x00\x00'
p6861
tp6862
Rp6863
sg5202
g5192
(g5193
(S'U8'
p6864
I0
I1
tp6865
Rp6866
(I3
S'<'
p6867
NNNI32
I4
I8
tp6868
bS'b\x00\x00\x00a\x00\x00\x00t\x00\x00\x00h\x00\x00\x00r\x00\x00\x00o\x00\x00\x00o\x00\x00\x00m\x00\x00\x00'
p6869
tp6870
Rp6871
sg5211
I372
sg5212
I499
sg5213
I0
sg5214
I0
sg5215
(lp6872
g5230
aVplain
p6873
ag5230
ag5230
ag5230
asg5075
I9
sa(dp6874
g5191
g5192
(g5196
S'\x01\x00\x00\x00\x00\x00\x00\x00'
p6875
tp6876
Rp6877
sg5202
g5192
(g5193
(S'U5'
p6878
I0
I1
tp6879
Rp6880
(I3
S'<'
p6881
NNNI20
I4
I8
tp6882
bS't\x00\x00\x00o\x00\x00\x00w\x00\x00\x00e\x00\x00\x00l\x00\x00\x00'
p6883
tp6884
Rp6885
sg5211
I73
sg5212
I125
sg5213
I302
sg5214
I302
sg5215
(lp6886
g5230
asg5075
I10
sa(dp6887
g5191
g5192
(g5196
S'\x01\x00\x00\x00\x00\x00\x00\x00'
p6888
tp6889
Rp6890
sg5202
g5192
(g5193
(S'U8'
p6891
I0
I1
tp6892
Rp6893
(I3
S'<'
p6894
NNNI32
I4
I8
tp6895
bS's\x00\x00\x00h\x00\x00\x00o\x00\x00\x00u\x00\x00\x00l\x00\x00\x00d\x00\x00\x00e\x00\x00\x00r\x00\x00\x00'
p6896
tp6897
Rp6898
sg5211
I113
sg5212
I69
sg5213
I183
sg5214
I153
sg5215
(lp6899
Vhairy
p6900
ag6900
ag6900
asg5075
I11
sa(dp6901
g5191
g5192
(g5196
S'\x01\x00\x00\x00\x00\x00\x00\x00'
p6902
tp6903
Rp6904
sg5202
g5192
(g5193
(S'U4'
p6905
I0
I1
tp6906
Rp6907
(I3
S'<'
p6908
NNNI16
I4
I8
tp6909
bS'e\x00\x00\x00y\x00\x00\x00e\x00\x00\x00s\x00\x00\x00'
p6910
tp6911
Rp6912
sg5211
I61
sg5212
I14
sg5213
I140
sg5214
I85
sg5215
(lp6913
g5230
ag5230
asg5075
I12
sa(dp6914
g5191
g5192
(g5196
S'\x01\x00\x00\x00\x00\x00\x00\x00'
p6915
tp6916
Rp6917
sg5202
g5192
(g5193
(S'U4'
p6918
I0
I1
tp6919
Rp6920
(I3
S'<'
p6921
NNNI16
I4
I8
tp6922
bS'r\x00\x00\x00a\x00\x00\x00c\x00\x00\x00k\x00\x00\x00'
p6923
tp6924
Rp6925
sg5211
I70
sg5212
I18
sg5213
I300
sg5214
I304
sg5215
(lp6926
Vblurry
p6927
asg5075
I13
sa(dp6928
g5191
g5192
(g5196
S'\x01\x00\x00\x00\x00\x00\x00\x00'
p6929
tp6930
Rp6931
sg5202
g5192
(g5193
(S'U3'
p6932
I0
I1
tp6933
Rp6934
(I3
S'<'
p6935
NNNI12
I4
I8
tp6936
bS'p\x00\x00\x00a\x00\x00\x00w\x00\x00\x00'
p6937
tp6938
Rp6939
sg5211
I27
sg5212
I36
sg5213
I191
sg5214
I188
sg5215
(lp6940
g5230
ag5230
asg5075
I14
sa(dp6941
g5191
g5192
(g5196
S'\x01\x00\x00\x00\x00\x00\x00\x00'
p6942
tp6943
Rp6944
sg5202
g5192
(g5193
(S'U6'
p6945
I0
I1
tp6946
Rp6947
(I3
S'<'
p6948
NNNI24
I4
I8
tp6949
bS'f\x00\x00\x00i\x00\x00\x00n\x00\x00\x00g\x00\x00\x00e\x00\x00\x00r\x00\x00\x00'
p6950
tp6951
Rp6952
sg5211
I37
sg5212
I29
sg5213
I306
sg5214
I81
sg5215
(lp6953
g5445
asg5075
I15
sa(dp6954
g5191
g5192
(g5196
S'\x01\x00\x00\x00\x00\x00\x00\x00'
p6955
tp6956
Rp6957
sg5202
g5192
(g5193
(S'U7'
p6958
I0
I1
tp6959
Rp6960
(I3
S'<'
p6961
NNNI28
I4
I8
tp6962
bS'd\x00\x00\x00o\x00\x00\x00o\x00\x00\x00r\x00\x00\x00w\x00\x00\x00a\x00\x00\x00y\x00\x00\x00'
p6963
tp6964
Rp6965
sg5211
I157
sg5212
I256
sg5213
I0
sg5214
I47
sg5215
(lp6966
Vdecorated
p6967
aVblack
p6968
ag6967
ag6967
ag6967
asg5075
I16
sa(dp6969
g5191
g5192
(g5196
S'\x01\x00\x00\x00\x00\x00\x00\x00'
p6970
tp6971
Rp6972
sg5202
g5192
(g5193
(S'U5'
p6973
I0
I1
tp6974
Rp6975
(I3
S'<'
p6976
NNNI20
I4
I8
tp6977
bS'h\x00\x00\x00i\x00\x00\x00n\x00\x00\x00g\x00\x00\x00e\x00\x00\x00'
p6978
tp6979
Rp6980
sg5211
I14
sg5212
I36
sg5213
I41
sg5214
I13
sg5215
(lp6981
g5230
ag5230
ag5230
ag5230
ag5230
asg5075
I17
sa(dp6982
g5191
g5192
(g5196
S'\x01\x00\x00\x00\x00\x00\x00\x00'
p6983
tp6984
Rp6985
sg5202
g5192
(g5193
(S'U4'
p6986
I0
I1
tp6987
Rp6988
(I3
S'<'
p6989
NNNI16
I4
I8
tp6990
bS'h\x00\x00\x00a\x00\x00\x00i\x00\x00\x00r\x00\x00\x00'
p6991
tp6992
Rp6993
sg5211
I156
sg5212
I158
sg5213
I50
sg5214
I23
sg5215
(lp6994
sg5075
I18
sasa(dp6995
g5062
(lp6996
(dp6997
g5065
g5181
sg5074
I0
sg5075
I1
sg5076
I1
sa(dp6998
g5065
g5625
sg5074
I1
sg5075
I1
sg5076
I2
sa(dp6999
g5065
g5181
sg5074
I2
sg5075
I1
sg5076
I4
sa(dp7000
g5065
(S'on top of'
p7001
S'are on top of'
p7002
S'on top of a'
p7003
S'on top of the'
p7004
S'are on top of a'
p7005
S'on top of an'
p7006
S'is on top of'
p7007
tp7008
sg5074
I3
sg5075
I1
sg5076
I5
sa(dp7009
g5065
g7008
sg5074
I4
sg5075
I1
sg5076
I6
sa(dp7010
g5065
g7008
sg5074
I5
sg5075
I1
sg5076
I7
sa(dp7011
g5065
(S'and'
p7012
S'and a'
p7013
S'and an'
p7014
tp7015
sg5074
I6
sg5075
I1
sg5076
I9
sa(dp7016
g5065
(VOF
p7017
tp7018
sg5074
I7
sg5075
I1
sg5076
I10
sa(dp7019
g5065
g6100
sg5074
I8
sg5075
I1
sg5076
I12
sa(dp7020
g5065
g7008
sg5074
I9
sg5075
I1
sg5076
I14
sasg5188
(lp7021
(dp7022
g5191
g5192
(g5196
S'\x01\x00\x00\x00\x00\x00\x00\x00'
p7023
tp7024
Rp7025
sg5202
g5192
(g5193
(S'U7'
p7026
I0
I1
tp7027
Rp7028
(I3
S'<'
p7029
NNNI28
I4
I8
tp7030
bS'c\x00\x00\x00o\x00\x00\x00u\x00\x00\x00n\x00\x00\x00t\x00\x00\x00e\x00\x00\x00r\x00\x00\x00'
p7031
tp7032
Rp7033
sg5211
I498
sg5212
I373
sg5213
I2
sg5214
I1
sg5215
(lp7034
Vtoy
p7035
asg5075
I0
sa(dp7036
g5191
g5192
(g5196
S'\x01\x00\x00\x00\x00\x00\x00\x00'
p7037
tp7038
Rp7039
sg5202
g5192
(g5193
(S'U5'
p7040
I0
I1
tp7041
Rp7042
(I3
S'<'
p7043
NNNI20
I4
I8
tp7044
bS's\x00\x00\x00a\x00\x00\x00l\x00\x00\x00a\x00\x00\x00d\x00\x00\x00'
p7045
tp7046
Rp7047
sg5211
I149
sg5212
I97
sg5213
I96
sg5214
I309
sg5215
(lp7048
Vcheese
p7049
asg5075
I1
sa(dp7050
g5191
g5192
(g5196
S'\x01\x00\x00\x00\x00\x00\x00\x00'
p7051
tp7052
Rp7053
sg5202
g5192
(g5193
(S'U5'
p7054
I0
I1
tp7055
Rp7056
(I3
S'<'
p7057
NNNI20
I4
I8
tp7058
bS'a\x00\x00\x00p\x00\x00\x00p\x00\x00\x00l\x00\x00\x00e\x00\x00\x00'
p7059
tp7060
Rp7061
sg5211
I70
sg5212
I92
sg5213
I82
sg5214
I191
sg5215
(lp7062
g5535
asg5075
I2
sa(dp7063
g5191
g5192
(g5196
S'\x01\x00\x00\x00\x00\x00\x00\x00'
p7064
tp7065
Rp7066
sg5202
g5192
(g5193
(S'U6'
p7067
I0
I1
tp7068
Rp7069
(I3
S'<'
p7070
NNNI24
I4
I8
tp7071
bS'b\x00\x00\x00o\x00\x00\x00t\x00\x00\x00t\x00\x00\x00l\x00\x00\x00e\x00\x00\x00'
p7072
tp7073
Rp7074
sg5211
I108
sg5212
I160
sg5213
I3
sg5214
I5
sg5215
(lp7075
g5230
asg5075
I3
sa(dp7076
g5191
g5192
(g5196
S'\x01\x00\x00\x00\x00\x00\x00\x00'
p7077
tp7078
Rp7079
sg5202
g5192
(g5193
(S'U10'
p7080
I0
I1
tp7081
Rp7082
(I3
S'<'
p7083
NNNI40
I4
I8
tp7084
bS's\x00\x00\x00t\x00\x00\x00r\x00\x00\x00a\x00\x00\x00w\x00\x00\x00b\x00\x00\x00e\x00\x00\x00r\x00\x00\x00r\x00\x00\x00y\x00\x00\x00'
p7085
tp7086
Rp7087
sg5211
I36
sg5212
I31
sg5213
I110
sg5214
I119
sg5215
(lp7088
g5535
asg5075
I4
sa(dp7089
g5191
g5192
(g5196
S'\x01\x00\x00\x00\x00\x00\x00\x00'
p7090
tp7091
Rp7092
sg5202
g5192
(g5193
(S'U3'
p7093
I0
I1
tp7094
Rp7095
(I3
S'<'
p7096
NNNI12
I4
I8
tp7097
bS'e\x00\x00\x00g\x00\x00\x00g\x00\x00\x00'
p7098
tp7099
Rp7100
sg5211
I48
sg5212
I38
sg5213
I140
sg5214
I342
sg5215
(lp7101
Vhard
p7102
asg5075
I5
sa(dp7103
g5191
g5192
(g5196
S'\x01\x00\x00\x00\x00\x00\x00\x00'
p7104
tp7105
Rp7106
sg5202
g5192
(g5193
(S'U8'
p7107
I0
I1
tp7108
Rp7109
(I3
S'<'
p7110
NNNI32
I4
I8
tp7111
bS'c\x00\x00\x00r\x00\x00\x00a\x00\x00\x00c\x00\x00\x00k\x00\x00\x00e\x00\x00\x00r\x00\x00\x00s\x00\x00\x00'
p7112
tp7113
Rp7114
sg5211
I45
sg5212
I47
sg5213
I96
sg5214
I303
sg5215
(lp7115
g6228
asg5075
I6
sa(dp7116
g5191
g5192
(g5196
S'\x01\x00\x00\x00\x00\x00\x00\x00'
p7117
tp7118
Rp7119
sg5202
g5192
(g5193
(S'U6'
p7120
I0
I1
tp7121
Rp7122
(I3
S'<'
p7123
NNNI24
I4
I8
tp7124
bS't\x00\x00\x00o\x00\x00\x00m\x00\x00\x00a\x00\x00\x00t\x00\x00\x00o\x00\x00\x00'
p7125
tp7126
Rp7127
sg5211
I91
sg5212
I58
sg5213
I92
sg5214
I345
sg5215
(lp7128
g5535
asg5075
I7
sa(dp7129
g5191
g5192
(g5196
S'\x01\x00\x00\x00\x00\x00\x00\x00'
p7130
tp7131
Rp7132
sg5202
g5192
(g5193
(S'U7'
p7133
I0
I1
tp7134
Rp7135
(I3
S'<'
p7136
NNNI28
I4
I8
tp7137
bS'n\x00\x00\x00a\x00\x00\x00p\x00\x00\x00k\x00\x00\x00i\x00\x00\x00n\x00\x00\x00s\x00\x00\x00'
p7138
tp7139
Rp7140
sg5211
I85
sg5212
I133
sg5213
I236
sg5214
I410
sg5215
(lp7141
Vmulti-colored
p7142
asg5075
I8
sa(dp7143
g5191
g5192
(g5196
S'\x01\x00\x00\x00\x00\x00\x00\x00'
p7144
tp7145
Rp7146
sg5202
g5192
(g5193
(S'U5'
p7147
I0
I1
tp7148
Rp7149
(I3
S'<'
p7150
NNNI20
I4
I8
tp7151
bS'f\x00\x00\x00r\x00\x00\x00u\x00\x00\x00i\x00\x00\x00t\x00\x00\x00'
p7152
tp7153
Rp7154
sg5211
I72
sg5212
I90
sg5213
I108
sg5214
I117
sg5215
(lp7155
g5230
asg5075
I9
sa(dp7156
g5191
g5192
(g5196
S'\x01\x00\x00\x00\x00\x00\x00\x00'
p7157
tp7158
Rp7159
sg5202
g5192
(g5193
(S'U3'
p7160
I0
I1
tp7161
Rp7162
(I3
S'<'
p7163
NNNI12
I4
I8
tp7164
bS'c\x00\x00\x00u\x00\x00\x00p\x00\x00\x00'
p7165
tp7166
Rp7167
sg5211
I122
sg5212
I162
sg5213
I77
sg5214
I88
sg5215
(lp7168
g5230
asg5075
I10
sa(dp7169
g5191
g5192
(g5196
S'\x01\x00\x00\x00\x00\x00\x00\x00'
p7170
tp7171
Rp7172
sg5202
g5192
(g5193
(S'U3'
p7173
I0
I1
tp7174
Rp7175
(I3
S'<'
p7176
NNNI12
I4
I8
tp7177
bS'l\x00\x00\x00i\x00\x00\x00d\x00\x00\x00'
p7178
tp7179
Rp7180
sg5211
I107
sg5212
I86
sg5213
I83
sg5214
I92
sg5215
(lp7181
VBrown 
p7182
asg5075
I11
sa(dp7183
g5191
g5192
(g5196
S'\x01\x00\x00\x00\x00\x00\x00\x00'
p7184
tp7185
Rp7186
sg5202
g5192
(g5193
(S'U4'
p7187
I0
I1
tp7188
Rp7189
(I3
S'<'
p7190
NNNI16
I4
I8
tp7191
bS'b\x00\x00\x00o\x00\x00\x00w\x00\x00\x00l\x00\x00\x00'
p7192
tp7193
Rp7194
sg5211
I188
sg5212
I178
sg5213
I175
sg5214
I239
sg5215
(lp7195
g5230
asg5075
I12
sa(dp7196
g5191
g5192
(g5196
S'\x01\x00\x00\x00\x00\x00\x00\x00'
p7197
tp7198
Rp7199
sg5202
g5192
(g5193
(S'U16'
p7200
I0
I1
tp7201
Rp7202
(I3
S'<'
p7203
NNNI64
I4
I8
tp7204
bS'c\x00\x00\x00r\x00\x00\x00a\x00\x00\x00c\x00\x00\x00k\x00\x00\x00e\x00\x00\x00r\x00\x00\x00 \x00\x00\x00w\x00\x00\x00r\x00\x00\x00a\x00\x00\x00p\x00\x00\x00p\x00\x00\x00e\x00\x00\x00r\x00\x00\x00s\x00\x00\x00'
p7205
tp7206
Rp7207
sg5211
I87
sg5212
I104
sg5213
I221
sg5214
I284
sg5215
(lp7208
sg5075
I13
sa(dp7209
g5191
g5192
(g5196
S'\x01\x00\x00\x00\x00\x00\x00\x00'
p7210
tp7211
Rp7212
sg5202
g5192
(g5193
(S'U7'
p7213
I0
I1
tp7214
Rp7215
(I3
S'<'
p7216
NNNI28
I4
I8
tp7217
bS'c\x00\x00\x00r\x00\x00\x00a\x00\x00\x00c\x00\x00\x00k\x00\x00\x00e\x00\x00\x00r\x00\x00\x00'
p7218
tp7219
Rp7220
sg5211
I42
sg5212
I48
sg5213
I132
sg5214
I414
sg5215
(lp7221
g6228
asg5075
I14
sa(dp7222
g5191
g5192
(g5196
S'\x01\x00\x00\x00\x00\x00\x00\x00'
p7223
tp7224
Rp7225
sg5202
g5192
(g5193
(S'U5'
p7226
I0
I1
tp7227
Rp7228
(I3
S'<'
p7229
NNNI20
I4
I8
tp7230
bS'l\x00\x00\x00a\x00\x00\x00b\x00\x00\x00e\x00\x00\x00l\x00\x00\x00'
p7231
tp7232
Rp7233
sg5211
I87
sg5212
I67
sg5213
I54
sg5214
I22
sg5215
(lp7234
Vtrimmed
p7235
asg5075
I15
sa(dp7236
g5191
g5192
(g5196
S'\x01\x00\x00\x00\x00\x00\x00\x00'
p7237
tp7238
Rp7239
sg5202
g5192
(g5193
(S'U5'
p7240
I0
I1
tp7241
Rp7242
(I3
S'<'
p7243
NNNI20
I4
I8
tp7244
bS'c\x00\x00\x00h\x00\x00\x00a\x00\x00\x00i\x00\x00\x00r\x00\x00\x00'
p7245
tp7246
Rp7247
sg5211
I83
sg5212
I127
sg5213
I15
sg5214
I417
sg5215
(lp7248
g5230
asg5075
I16
sa(dp7249
g5191
g5192
(g5196
S'\x01\x00\x00\x00\x00\x00\x00\x00'
p7250
tp7251
Rp7252
sg5202
g5192
(g5193
(S'U5'
p7253
I0
I1
tp7254
Rp7255
(I3
S'<'
p7256
NNNI20
I4
I8
tp7257
bS'c\x00\x00\x00h\x00\x00\x00a\x00\x00\x00i\x00\x00\x00r\x00\x00\x00'
p7258
tp7259
Rp7260
sg5211
I124
sg5212
I71
sg5213
I2
sg5214
I213
sg5215
(lp7261
sg5075
I17
sasa(dp7262
g5062
(lp7263
(dp7264
g5065
g5085
sg5074
I0
sg5075
I1
sg5076
I1
sa(dp7265
g5065
g6100
sg5074
I1
sg5075
I2
sg5076
I1
sa(dp7266
g5065
g5157
sg5074
I2
sg5075
I4
sg5076
I1
sa(dp7267
g5065
g5157
sg5074
I3
sg5075
I4
sg5076
I1
sa(dp7268
g5065
(S'around'
p7269
S'around a'
p7270
S'are around'
p7271
S'around the'
p7272
S'around an'
p7273
S'are around a'
p7274
S'is around'
p7275
tp7276
sg5074
I4
sg5075
I4
sg5076
I2
sa(dp7277
g5065
(S'below'
p7278
S'below the'
p7279
S'below a'
p7280
S'are below'
p7281
S'below an'
p7282
S'is below'
p7283
tp7284
sg5074
I5
sg5075
I3
sg5076
I2
sa(dp7285
g5065
g7284
sg5074
I6
sg5075
I3
sg5076
I2
sa(dp7286
g5065
g7008
sg5074
I7
sg5075
I5
sg5076
I2
sa(dp7287
g5065
g7008
sg5074
I8
sg5075
I5
sg5076
I2
sa(dp7288
g5065
g7008
sg5074
I9
sg5075
I1
sg5076
I3
sa(dp7289
g5065
g5136
sg5074
I10
sg5075
I4
sg5076
I3
sa(dp7290
g5065
g5136
sg5074
I11
sg5075
I4
sg5076
I3
sa(dp7291
g5065
g5136
sg5074
I12
sg5075
I2
sg5076
I4
sa(dp7292
g5065
g5181
sg5074
I13
sg5075
I3
sg5076
I4
sa(dp7293
g5065
g5181
sg5074
I14
sg5075
I3
sg5076
I4
sa(dp7294
g5065
g5136
sg5074
I15
sg5075
I1
sg5076
I5
sa(dp7295
g5065
g7015
sg5074
I16
sg5075
I2
sg5076
I5
sa(dp7296
g5065
g7015
sg5074
I17
sg5075
I2
sg5076
I5
sasg5188
(lp7297
(dp7298
g5191
g5192
(g5196
S'\x01\x00\x00\x00\x00\x00\x00\x00'
p7299
tp7300
Rp7301
sg5202
g5192
(g5193
(S'U6'
p7302
I0
I1
tp7303
Rp7304
(I3
S'<'
p7305
NNNI24
I4
I8
tp7306
bS'p\x00\x00\x00e\x00\x00\x00a\x00\x00\x00n\x00\x00\x00u\x00\x00\x00t\x00\x00\x00'
p7307
tp7308
Rp7309
sg5211
I59
sg5212
I51
sg5213
I153
sg5214
I117
sg5215
(lp7310
sg5075
I0
sa(dp7311
g5191
g5192
(g5196
S'\x01\x00\x00\x00\x00\x00\x00\x00'
p7312
tp7313
Rp7314
sg5202
g5192
(g5193
(S'U5'
p7315
I0
I1
tp7316
Rp7317
(I3
S'<'
p7318
NNNI20
I4
I8
tp7319
bS'p\x00\x00\x00l\x00\x00\x00a\x00\x00\x00t\x00\x00\x00e\x00\x00\x00'
p7320
tp7321
Rp7322
sg5211
I498
sg5212
I373
sg5213
I0
sg5214
I1
sg5215
(lp7323
g5230
ag5230
ag5230
ag5230
ag5230
asg5075
I1
sa(dp7324
g5191
g5192
(g5196
S'\x01\x00\x00\x00\x00\x00\x00\x00'
p7325
tp7326
Rp7327
sg5202
g5192
(g5193
(S'U5'
p7328
I0
I1
tp7329
Rp7330
(I3
S'<'
p7331
NNNI20
I4
I8
tp7332
bS's\x00\x00\x00a\x00\x00\x00u\x00\x00\x00c\x00\x00\x00e\x00\x00\x00'
p7333
tp7334
Rp7335
sg5211
I422
sg5212
I316
sg5213
I57
sg5214
I76
sg5215
(lp7336
Vstripped
p7337
aVreflecting
p7338
ag7337
ag7337
ag7337
asg5075
I2
sa(dp7339
g5191
g5192
(g5196
S'\x01\x00\x00\x00\x00\x00\x00\x00'
p7340
tp7341
Rp7342
sg5202
g5192
(g5193
(S'U6'
p7343
I0
I1
tp7344
Rp7345
(I3
S'<'
p7346
NNNI24
I4
I8
tp7347
bS'c\x00\x00\x00a\x00\x00\x00r\x00\x00\x00r\x00\x00\x00o\x00\x00\x00t\x00\x00\x00'
p7348
tp7349
Rp7350
sg5211
I230
sg5212
I164
sg5213
I0
sg5214
I123
sg5215
(lp7351
g5230
ag5230
ag5230
ag5230
ag5230
asg5075
I3
sa(dp7352
g5191
g5192
(g5196
S'\x01\x00\x00\x00\x00\x00\x00\x00'
p7353
tp7354
Rp7355
sg5202
g5192
(g5193
(S'U6'
p7356
I0
I1
tp7357
Rp7358
(I3
S'<'
p7359
NNNI24
I4
I8
tp7360
bS'p\x00\x00\x00a\x00\x00\x00s\x00\x00\x00t\x00\x00\x00r\x00\x00\x00y\x00\x00\x00'
p7361
tp7362
Rp7363
sg5211
I217
sg5212
I139
sg5213
I35
sg5214
I259
sg5215
(lp7364
g6967
ag6967
ag6967
ag6967
ag6967
asg5075
I4
sa(dp7365
g5191
g5192
(g5196
S'\x01\x00\x00\x00\x00\x00\x00\x00'
p7366
tp7367
Rp7368
sg5202
g5192
(g5193
(S'U4'
p7369
I0
I1
tp7370
Rp7371
(I3
S'<'
p7372
NNNI16
I4
I8
tp7373
bS'm\x00\x00\x00e\x00\x00\x00a\x00\x00\x00t\x00\x00\x00'
p7374
tp7375
Rp7376
sg5211
I140
sg5212
I91
sg5213
I0
sg5214
I152
sg5215
(lp7377
g5230
ag5230
aVrolled up
p7378
ag5230
ag5230
asg5075
I5
sa(dp7379
g5191
g5192
(g5196
S'\x01\x00\x00\x00\x00\x00\x00\x00'
p7380
tp7381
Rp7382
sg5202
g5192
(g5193
(S'U5'
p7383
I0
I1
tp7384
Rp7385
(I3
S'<'
p7386
NNNI20
I4
I8
tp7387
bS't\x00\x00\x00a\x00\x00\x00b\x00\x00\x00l\x00\x00\x00e\x00\x00\x00'
p7388
tp7389
Rp7390
sg5211
I81
sg5212
I39
sg5213
I0
sg5214
I418
sg5215
(lp7391
sg5075
I6
sasa(dp7392
g5062
(lp7393
(dp7394
g5065
g5136
sg5074
I0
sg5075
I1
sg5076
I0
sa(dp7395
g5065
g7015
sg5074
I1
sg5075
I1
sg5076
I1
sa(dp7396
g5065
g7015
sg5074
I2
sg5075
I1
sg5076
I2
sa(dp7397
g5065
g5136
sg5074
I3
sg5075
I1
sg5076
I3
sa(dp7398
g5065
g5136
sg5074
I4
sg5075
I1
sg5076
I5
sa(dp7399
g5065
g5136
sg5074
I5
sg5075
I1
sg5076
I7
sa(dp7400
g5065
(S'beneath'
p7401
S'beneath a'
p7402
S'are beneath'
p7403
tp7404
sg5074
I6
sg5075
I1
sg5076
I9
sa(dp7405
g5065
g5085
sg5074
I7
sg5075
I1
sg5076
I10
sa(dp7406
g5065
g5094
sg5074
I8
sg5075
I1
sg5076
I11
sa(dp7407
g5065
g5157
sg5074
I9
sg5075
I1
sg5076
I12
sa(dp7408
g5065
g5157
sg5074
I10
sg5075
I1
sg5076
I13
sa(dp7409
g5065
g5094
sg5074
I11
sg5075
I1
sg5076
I14
sa(dp7410
g5065
g5085
sg5074
I12
sg5075
I1
sg5076
I15
sa(dp7411
g5065
(VWEARING
p7412
tp7413
sg5074
I13
sg5075
I1
sg5076
I16
sa(dp7414
g5065
g5085
sg5074
I14
sg5075
I1
sg5076
I17
sa(dp7415
g5065
g7413
sg5074
I15
sg5075
I1
sg5076
I18
sa(dp7416
g5065
g5136
sg5074
I16
sg5075
I1
sg5076
I19
sa(dp7417
g5065
g5136
sg5074
I17
sg5075
I1
sg5076
I20
sa(dp7418
g5065
g5136
sg5074
I18
sg5075
I1
sg5076
I21
sa(dp7419
g5065
g5136
sg5074
I19
sg5075
I1
sg5076
I22
sa(dp7420
g5065
g5085
sg5074
I20
sg5075
I1
sg5076
I23
sa(dp7421
g5065
g5136
sg5074
I21
sg5075
I1
sg5076
I24
sa(dp7422
g5065
g5136
sg5074
I22
sg5075
I1
sg5076
I25
sa(dp7423
g5065
g5085
sg5074
I23
sg5075
I1
sg5076
I27
sa(dp7424
g5065
g5157
sg5074
I24
sg5075
I1
sg5076
I28
sa(dp7425
g5065
g7284
sg5074
I25
sg5075
I1
sg5076
I29
sa(dp7426
g5065
g5085
sg5074
I26
sg5075
I1
sg5076
I31
sa(dp7427
g5065
g5136
sg5074
I27
sg5075
I1
sg5076
I32
sa(dp7428
g5065
g5085
sg5074
I28
sg5075
I1
sg5076
I34
sa(dp7429
g5065
g7018
sg5074
I29
sg5075
I1
sg5076
I36
sa(dp7430
g5065
g5157
sg5074
I30
sg5075
I1
sg5076
I38
sa(dp7431
g5065
g5136
sg5074
I31
sg5075
I1
sg5076
I39
sa(dp7432
g5065
g5085
sg5074
I32
sg5075
I1
sg5076
I40
sa(dp7433
g5065
g5085
sg5074
I33
sg5075
I1
sg5076
I41
sa(dp7434
g5065
g5085
sg5074
I34
sg5075
I1
sg5076
I42
sa(dp7435
g5065
g5085
sg5074
I35
sg5075
I1
sg5076
I44
sa(dp7436
g5065
g5085
sg5074
I36
sg5075
I1
sg5076
I45
sa(dp7437
g5065
g5085
sg5074
I37
sg5075
I1
sg5076
I46
sa(dp7438
g5065
g5127
sg5074
I38
sg5075
I1
sg5076
I47
sa(dp7439
g5065
g5136
sg5074
I39
sg5075
I1
sg5076
I48
sa(dp7440
g5065
g5085
sg5074
I40
sg5075
I1
sg5076
I49
sa(dp7441
g5065
g5136
sg5074
I41
sg5075
I1
sg5076
I50
sasg5188
(lp7442
(dp7443
g5191
g5192
(g5196
S'\x01\x00\x00\x00\x00\x00\x00\x00'
p7444
tp7445
Rp7446
sg5202
g5192
(g5193
(S'U4'
p7447
I0
I1
tp7448
Rp7449
(I3
S'<'
p7450
NNNI16
I4
I8
tp7451
bS's\x00\x00\x00i\x00\x00\x00g\x00\x00\x00n\x00\x00\x00'
p7452
tp7453
Rp7454
sg5211
I320
sg5212
I253
sg5213
I437
sg5214
I503
sg5215
(lp7455
g5230
asg5075
I0
sa(dp7456
g5191
g5192
(g5196
S'\x01\x00\x00\x00\x00\x00\x00\x00'
p7457
tp7458
Rp7459
sg5202
g5192
(g5193
(S'U6'
p7460
I0
I1
tp7461
Rp7462
(I3
S'<'
p7463
NNNI24
I4
I8
tp7464
bS'p\x00\x00\x00e\x00\x00\x00r\x00\x00\x00s\x00\x00\x00o\x00\x00\x00n\x00\x00\x00'
p7465
tp7466
Rp7467
sg5211
I65
sg5212
I229
sg5213
I446
sg5214
I235
sg5215
(lp7468
g5230
asg5075
I1
sa(dp7469
g5191
g5192
(g5196
S'\x01\x00\x00\x00\x00\x00\x00\x00'
p7470
tp7471
Rp7472
sg5202
g5192
(g5193
(S'U6'
p7473
I0
I1
tp7474
Rp7475
(I3
S'<'
p7476
NNNI24
I4
I8
tp7477
bS's\x00\x00\x00t\x00\x00\x00r\x00\x00\x00e\x00\x00\x00e\x00\x00\x00t\x00\x00\x00'
p7478
tp7479
Rp7480
sg5211
I733
sg5212
I230
sg5213
I538
sg5214
I291
sg5215
(lp7481
g5284
asg5075
I2
sa(dp7482
g5191
g5192
(g5196
S'\x01\x00\x00\x00\x00\x00\x00\x00'
p7483
tp7484
Rp7485
sg5202
g5192
(g5193
(S'U4'
p7486
I0
I1
tp7487
Rp7488
(I3
S'<'
p7489
NNNI16
I4
I8
tp7490
bS's\x00\x00\x00i\x00\x00\x00g\x00\x00\x00n\x00\x00\x00'
p7491
tp7492
Rp7493
sg5211
I61
sg5212
I52
sg5213
I314
sg5214
I167
sg5215
(lp7494
g5230
asg5075
I3
sa(dp7495
g5191
g5192
(g5196
S'\x01\x00\x00\x00\x00\x00\x00\x00'
p7496
tp7497
Rp7498
sg5202
g5192
(g5193
(S'U7'
p7499
I0
I1
tp7500
Rp7501
(I3
S'<'
p7502
NNNI28
I4
I8
tp7503
bS'w\x00\x00\x00o\x00\x00\x00r\x00\x00\x00d\x00\x00\x00i\x00\x00\x00n\x00\x00\x00g\x00\x00\x00'
p7504
tp7505
Rp7506
sg5211
I40
sg5212
I37
sg5213
I317
sg5214
I164
sg5215
(lp7507
sg5075
I4
sa(dp7508
g5191
g5192
(g5196
S'\x01\x00\x00\x00\x00\x00\x00\x00'
p7509
tp7510
Rp7511
sg5202
g5192
(g5193
(S'U4'
p7512
I0
I1
tp7513
Rp7514
(I3
S'<'
p7515
NNNI16
I4
I8
tp7516
bS's\x00\x00\x00i\x00\x00\x00g\x00\x00\x00n\x00\x00\x00'
p7517
tp7518
Rp7519
sg5211
I37
sg5212
I42
sg5213
I21
sg5214
I519
sg5215
(lp7520
g5230
asg5075
I5
sa(dp7521
g5191
g5192
(g5196
S'\x01\x00\x00\x00\x00\x00\x00\x00'
p7522
tp7523
Rp7524
sg5202
g5192
(g5193
(S'U5'
p7525
I0
I1
tp7526
Rp7527
(I3
S'<'
p7528
NNNI20
I4
I8
tp7529
bS'r\x00\x00\x00i\x00\x00\x00g\x00\x00\x00h\x00\x00\x00t\x00\x00\x00'
p7530
tp7531
Rp7532
sg5211
I485
sg5212
I647
sg5213
I10
sg5214
I26
sg5215
(lp7533
Vbottom
p7534
asg5075
I6
sa(dp7535
g5191
g5192
(g5196
S'\x01\x00\x00\x00\x00\x00\x00\x00'
p7536
tp7537
Rp7538
sg5202
g5192
(g5193
(S'U4'
p7539
I0
I1
tp7540
Rp7541
(I3
S'<'
p7542
NNNI16
I4
I8
tp7543
bS's\x00\x00\x00i\x00\x00\x00g\x00\x00\x00n\x00\x00\x00'
p7544
tp7545
Rp7546
sg5211
I147
sg5212
I61
sg5213
I111
sg5214
I665
sg5215
(lp7547
g5230
asg5075
I7
sa(dp7548
g5191
g5192
(g5196
S'\x01\x00\x00\x00\x00\x00\x00\x00'
p7549
tp7550
Rp7551
sg5202
g5192
(g5193
(S'U4'
p7552
I0
I1
tp7553
Rp7554
(I3
S'<'
p7555
NNNI16
I4
I8
tp7556
bS'b\x00\x00\x00e\x00\x00\x00a\x00\x00\x00m\x00\x00\x00'
p7557
tp7558
Rp7559
sg5211
I282
sg5212
I37
sg5213
I55
sg5214
I566
sg5215
(lp7560
Vwood 
p7561
asg5075
I8
sa(dp7562
g5191
g5192
(g5196
S'\x01\x00\x00\x00\x00\x00\x00\x00'
p7563
tp7564
Rp7565
sg5202
g5192
(g5193
(S'U4'
p7566
I0
I1
tp7567
Rp7568
(I3
S'<'
p7569
NNNI16
I4
I8
tp7570
bS't\x00\x00\x00i\x00\x00\x00r\x00\x00\x00e\x00\x00\x00'
p7571
tp7572
Rp7573
sg5211
I31
sg5212
I53
sg5213
I634
sg5214
I780
sg5215
(lp7574
g5230
asg5075
I9
sa(dp7575
g5191
g5192
(g5196
S'\x01\x00\x00\x00\x00\x00\x00\x00'
p7576
tp7577
Rp7578
sg5202
g5192
(g5193
(S'U4'
p7579
I0
I1
tp7580
Rp7581
(I3
S'<'
p7582
NNNI16
I4
I8
tp7583
bS'l\x00\x00\x00i\x00\x00\x00n\x00\x00\x00e\x00\x00\x00'
p7584
tp7585
Rp7586
sg5211
I152
sg5212
I91
sg5213
I673
sg5214
I793
sg5215
(lp7587
g5535
asg5075
I10
sa(dp7588
g5191
g5192
(g5196
S'\x01\x00\x00\x00\x00\x00\x00\x00'
p7589
tp7590
Rp7591
sg5202
g5192
(g5193
(S'U5'
p7592
I0
I1
tp7593
Rp7594
(I3
S'<'
p7595
NNNI20
I4
I8
tp7596
bS'p\x00\x00\x00l\x00\x00\x00a\x00\x00\x00t\x00\x00\x00e\x00\x00\x00'
p7597
tp7598
Rp7599
sg5211
I80
sg5212
I42
sg5213
I565
sg5214
I639
sg5215
(lp7600
g5230
asg5075
I11
sa(dp7601
g5191
g5192
(g5196
S'\x01\x00\x00\x00\x00\x00\x00\x00'
p7602
tp7603
Rp7604
sg5202
g5192
(g5193
(S'U3'
p7605
I0
I1
tp7606
Rp7607
(I3
S'<'
p7608
NNNI12
I4
I8
tp7609
bS'v\x00\x00\x00a\x00\x00\x00n\x00\x00\x00'
p7610
tp7611
Rp7612
sg5211
I277
sg5212
I249
sg5213
I440
sg5214
I531
sg5215
(lp7613
g5535
asg5075
I12
sa(dp7614
g5191
g5192
(g5196
S'\x01\x00\x00\x00\x00\x00\x00\x00'
p7615
tp7616
Rp7617
sg5202
g5192
(g5193
(S'U3'
p7618
I0
I1
tp7619
Rp7620
(I3
S'<'
p7621
NNNI12
I4
I8
tp7622
bS'c\x00\x00\x00a\x00\x00\x00r\x00\x00\x00'
p7623
tp7624
Rp7625
sg5211
I117
sg5212
I122
sg5213
I463
sg5214
I404
sg5215
(lp7626
g5284
asg5075
I13
sa(dp7627
g5191
g5192
(g5196
S'\x01\x00\x00\x00\x00\x00\x00\x00'
p7628
tp7629
Rp7630
sg5202
g5192
(g5193
(S'U5'
p7631
I0
I1
tp7632
Rp7633
(I3
S'<'
p7634
NNNI20
I4
I8
tp7635
bS'p\x00\x00\x00l\x00\x00\x00a\x00\x00\x00t\x00\x00\x00e\x00\x00\x00'
p7636
tp7637
Rp7638
sg5211
I35
sg5212
I13
sg5213
I550
sg5214
I460
sg5215
(lp7639
g5230
asg5075
I14
sa(dp7640
g5191
g5192
(g5196
S'\x01\x00\x00\x00\x00\x00\x00\x00'
p7641
tp7642
Rp7643
sg5202
g5192
(g5193
(S'U3'
p7644
I0
I1
tp7645
Rp7646
(I3
S'<'
p7647
NNNI12
I4
I8
tp7648
bS'm\x00\x00\x00a\x00\x00\x00n\x00\x00\x00'
p7649
tp7650
Rp7651
sg5211
I52
sg5212
I221
sg5213
I455
sg5214
I238
sg5215
(lp7652
g5230
asg5075
I15
sa(dp7653
g5191
g5192
(g5196
S'\x01\x00\x00\x00\x00\x00\x00\x00'
p7654
tp7655
Rp7656
sg5202
g5192
(g5193
(S'U5'
p7657
I0
I1
tp7658
Rp7659
(I3
S'<'
p7660
NNNI20
I4
I8
tp7661
bS's\x00\x00\x00h\x00\x00\x00i\x00\x00\x00r\x00\x00\x00t\x00\x00\x00'
p7662
tp7663
Rp7664
sg5211
I44
sg5212
I85
sg5213
I483
sg5214
I238
sg5215
(lp7665
g5230
asg5075
I16
sa(dp7666
g5191
g5192
(g5196
S'\x01\x00\x00\x00\x00\x00\x00\x00'
p7667
tp7668
Rp7669
sg5202
g5192
(g5193
(S'U3'
p7670
I0
I1
tp7671
Rp7672
(I3
S'<'
p7673
NNNI12
I4
I8
tp7674
bS'm\x00\x00\x00a\x00\x00\x00n\x00\x00\x00'
p7675
tp7676
Rp7677
sg5211
I61
sg5212
I242
sg5213
I436
sg5214
I235
sg5215
(lp7678
g5230
asg5075
I17
sa(dp7679
g5191
g5192
(g5196
S'\x01\x00\x00\x00\x00\x00\x00\x00'
p7680
tp7681
Rp7682
sg5202
g5192
(g5193
(S'U5'
p7683
I0
I1
tp7684
Rp7685
(I3
S'<'
p7686
NNNI20
I4
I8
tp7687
bS'j\x00\x00\x00e\x00\x00\x00a\x00\x00\x00n\x00\x00\x00s\x00\x00\x00'
p7688
tp7689
Rp7690
sg5211
I33
sg5212
I119
sg5213
I539
sg5214
I242
sg5215
(lp7691
Vcotton
p7692
asg5075
I18
sa(dp7693
g5191
g5192
(g5196
S'\x01\x00\x00\x00\x00\x00\x00\x00'
p7694
tp7695
Rp7696
sg5202
g5192
(g5193
(S'U4'
p7697
I0
I1
tp7698
Rp7699
(I3
S'<'
p7700
NNNI16
I4
I8
tp7701
bS's\x00\x00\x00i\x00\x00\x00g\x00\x00\x00n\x00\x00\x00'
p7702
tp7703
Rp7704
sg5211
I72
sg5212
I59
sg5213
I312
sg5214
I154
sg5215
(lp7705
g5230
asg5075
I19
sa(dp7706
g5191
g5192
(g5196
S'\x01\x00\x00\x00\x00\x00\x00\x00'
p7707
tp7708
Rp7709
sg5202
g5192
(g5193
(S'U4'
p7710
I0
I1
tp7711
Rp7712
(I3
S'<'
p7713
NNNI16
I4
I8
tp7714
bS'p\x00\x00\x00o\x00\x00\x00l\x00\x00\x00e\x00\x00\x00'
p7715
tp7716
Rp7717
sg5211
I57
sg5212
I301
sg5213
I366
sg5214
I167
sg5215
(lp7718
g5230
asg5075
I20
sa(dp7719
g5191
g5192
(g5196
S'\x01\x00\x00\x00\x00\x00\x00\x00'
p7720
tp7721
Rp7722
sg5202
g5192
(g5193
(S'U4'
p7723
I0
I1
tp7724
Rp7725
(I3
S'<'
p7726
NNNI16
I4
I8
tp7727
bS's\x00\x00\x00i\x00\x00\x00g\x00\x00\x00n\x00\x00\x00'
p7728
tp7729
Rp7730
sg5211
I33
sg5212
I24
sg5213
I371
sg5214
I519
sg5215
(lp7731
g5230
asg5075
I21
sa(dp7732
g5191
g5192
(g5196
S'\x01\x00\x00\x00\x00\x00\x00\x00'
p7733
tp7734
Rp7735
sg5202
g5192
(g5193
(S'U4'
p7736
I0
I1
tp7737
Rp7738
(I3
S'<'
p7739
NNNI16
I4
I8
tp7740
bS's\x00\x00\x00i\x00\x00\x00g\x00\x00\x00n\x00\x00\x00'
p7741
tp7742
Rp7743
sg5211
I46
sg5212
I22
sg5213
I366
sg5214
I374
sg5215
(lp7744
g5230
asg5075
I22
sa(dp7745
g5191
g5192
(g5196
S'\x01\x00\x00\x00\x00\x00\x00\x00'
p7746
tp7747
Rp7748
sg5202
g5192
(g5193
(S'U6'
p7749
I0
I1
tp7750
Rp7751
(I3
S'<'
p7752
NNNI24
I4
I8
tp7753
bS'b\x00\x00\x00a\x00\x00\x00n\x00\x00\x00n\x00\x00\x00e\x00\x00\x00r\x00\x00\x00'
p7754
tp7755
Rp7756
sg5211
I39
sg5212
I78
sg5213
I288
sg5214
I854
sg5215
(lp7757
g5230
asg5075
I23
sa(dp7758
g5191
g5192
(g5196
S'\x01\x00\x00\x00\x00\x00\x00\x00'
p7759
tp7760
Rp7761
sg5202
g5192
(g5193
(S'U4'
p7762
I0
I1
tp7763
Rp7764
(I3
S'<'
p7765
NNNI16
I4
I8
tp7766
bS'p\x00\x00\x00o\x00\x00\x00l\x00\x00\x00e\x00\x00\x00'
p7767
tp7768
Rp7769
sg5211
I29
sg5212
I191
sg5213
I347
sg5214
I886
sg5215
(lp7770
g5230
asg5075
I24
sa(dp7771
g5191
g5192
(g5196
S'\x01\x00\x00\x00\x00\x00\x00\x00'
p7772
tp7773
Rp7774
sg5202
g5192
(g5193
(S'U4'
p7775
I0
I1
tp7776
Rp7777
(I3
S'<'
p7778
NNNI16
I4
I8
tp7779
bS's\x00\x00\x00i\x00\x00\x00g\x00\x00\x00n\x00\x00\x00'
p7780
tp7781
Rp7782
sg5211
I147
sg5212
I52
sg5213
I118
sg5214
I665
sg5215
(lp7783
g5230
asg5075
I25
sa(dp7784
g5191
g5192
(g5196
S'\x01\x00\x00\x00\x00\x00\x00\x00'
p7785
tp7786
Rp7787
sg5202
g5192
(g5193
(S'U4'
p7788
I0
I1
tp7789
Rp7790
(I3
S'<'
p7791
NNNI16
I4
I8
tp7792
bS'v\x00\x00\x00i\x00\x00\x00e\x00\x00\x00w\x00\x00\x00'
p7793
tp7794
Rp7795
sg5211
I806
sg5212
I454
sg5213
I3
sg5214
I171
sg5215
(lp7796
Vcity
p7797
asg5075
I26
sa(dp7798
g5191
g5192
(g5196
S'\x01\x00\x00\x00\x00\x00\x00\x00'
p7799
tp7800
Rp7801
sg5202
g5192
(g5193
(S'U3'
p7802
I0
I1
tp7803
Rp7804
(I3
S'<'
p7805
NNNI12
I4
I8
tp7806
bS's\x00\x00\x00k\x00\x00\x00y\x00\x00\x00'
p7807
tp7808
Rp7809
sg5211
I135
sg5212
I182
sg5213
I120
sg5214
I378
sg5215
(lp7810
g5230
asg5075
I27
sa(dp7811
g5191
g5192
(g5196
S'\x01\x00\x00\x00\x00\x00\x00\x00'
p7812
tp7813
Rp7814
sg5202
g5192
(g5193
(S'U3'
p7815
I0
I1
tp7816
Rp7817
(I3
S'<'
p7818
NNNI12
I4
I8
tp7819
bS'c\x00\x00\x00a\x00\x00\x00r\x00\x00\x00'
p7820
tp7821
Rp7822
sg5211
I282
sg5212
I268
sg5213
I450
sg5214
I527
sg5215
(lp7823
g5284
asg5075
I28
sa(dp7824
g5191
g5192
(g5196
S'\x01\x00\x00\x00\x00\x00\x00\x00'
p7825
tp7826
Rp7827
sg5202
g5192
(g5193
(S'U4'
p7828
I0
I1
tp7829
Rp7830
(I3
S'<'
p7831
NNNI16
I4
I8
tp7832
bS'r\x00\x00\x00o\x00\x00\x00a\x00\x00\x00d\x00\x00\x00'
p7833
tp7834
Rp7835
sg5211
I731
sg5212
I260
sg5213
I504
sg5214
I285
sg5215
(lp7836
g5230
asg5075
I29
sa(dp7837
g5191
g5192
(g5196
S'\x01\x00\x00\x00\x00\x00\x00\x00'
p7838
tp7839
Rp7840
sg5202
g5192
(g5193
(S'U4'
p7841
I0
I1
tp7842
Rp7843
(I3
S'<'
p7844
NNNI16
I4
I8
tp7845
bS'v\x00\x00\x00i\x00\x00\x00e\x00\x00\x00w\x00\x00\x00'
p7846
tp7847
Rp7848
sg5211
I281
sg5212
I415
sg5213
I302
sg5214
I238
sg5215
(lp7849
g7797
asg5075
I30
sa(dp7850
g5191
g5192
(g5196
S'\x01\x00\x00\x00\x00\x00\x00\x00'
p7851
tp7852
Rp7853
sg5202
g5192
(g5193
(S'U3'
p7854
I0
I1
tp7855
Rp7856
(I3
S'<'
p7857
NNNI12
I4
I8
tp7858
bS'm\x00\x00\x00a\x00\x00\x00n\x00\x00\x00'
p7859
tp7860
Rp7861
sg5211
I53
sg5212
I232
sg5213
I436
sg5214
I235
sg5215
(lp7862
g5230
asg5075
I31
sa(dp7863
g5191
g5192
(g5196
S'\x01\x00\x00\x00\x00\x00\x00\x00'
p7864
tp7865
Rp7866
sg5202
g5192
(g5193
(S'U4'
p7867
I0
I1
tp7868
Rp7869
(I3
S'<'
p7870
NNNI16
I4
I8
tp7871
bS'r\x00\x00\x00o\x00\x00\x00a\x00\x00\x00d\x00\x00\x00'
p7872
tp7873
Rp7874
sg5211
I742
sg5212
I229
sg5213
I530
sg5214
I275
sg5215
(lp7875
g5230
asg5075
I32
sa(dp7876
g5191
g5192
(g5196
S'\x01\x00\x00\x00\x00\x00\x00\x00'
p7877
tp7878
Rp7879
sg5202
g5192
(g5193
(S'U4'
p7880
I0
I1
tp7881
Rp7882
(I3
S'<'
p7883
NNNI16
I4
I8
tp7884
bS'v\x00\x00\x00i\x00\x00\x00e\x00\x00\x00w\x00\x00\x00'
p7885
tp7886
Rp7887
sg5211
I1009
sg5212
I448
sg5213
I18
sg5214
I7
sg5215
(lp7888
g7797
asg5075
I33
sa(dp7889
g5191
g5192
(g5196
S'\x01\x00\x00\x00\x00\x00\x00\x00'
p7890
tp7891
Rp7892
sg5202
g5192
(g5193
(S'U5'
p7893
I0
I1
tp7894
Rp7895
(I3
S'<'
p7896
NNNI20
I4
I8
tp7897
bS't\x00\x00\x00r\x00\x00\x00e\x00\x00\x00e\x00\x00\x00s\x00\x00\x00'
p7898
tp7899
Rp7900
sg5211
I450
sg5212
I208
sg5213
I224
sg5214
I568
sg5215
(lp7901
g5230
asg5075
I34
sa(dp7902
g5191
g5192
(g5196
S'\x01\x00\x00\x00\x00\x00\x00\x00'
p7903
tp7904
Rp7905
sg5202
g5192
(g5193
(S'U4'
p7906
I0
I1
tp7907
Rp7908
(I3
S'<'
p7909
NNNI16
I4
I8
tp7910
bS'v\x00\x00\x00i\x00\x00\x00e\x00\x00\x00w\x00\x00\x00'
p7911
tp7912
Rp7913
sg5211
I353
sg5212
I117
sg5213
I284
sg5214
I302
sg5215
(lp7914
g7797
asg5075
I35
sa(dp7915
g5191
g5192
(g5196
S'\x01\x00\x00\x00\x00\x00\x00\x00'
p7916
tp7917
Rp7918
sg5202
g5192
(g5193
(S'U7'
p7919
I0
I1
tp7920
Rp7921
(I3
S'<'
p7922
NNNI28
I4
I8
tp7923
bS's\x00\x00\x00i\x00\x00\x00g\x00\x00\x00n\x00\x00\x00a\x00\x00\x00l\x00\x00\x00s\x00\x00\x00'
p7924
tp7925
Rp7926
sg5211
I245
sg5212
I40
sg5213
I338
sg5214
I339
sg5215
(lp7927
g6123
asg5075
I36
sa(dp7928
g5191
g5192
(g5196
S'\x01\x00\x00\x00\x00\x00\x00\x00'
p7929
tp7930
Rp7931
sg5202
g5192
(g5193
(S'U9'
p7932
I0
I1
tp7933
Rp7934
(I3
S'<'
p7935
NNNI36
I4
I8
tp7936
bS's\x00\x00\x00t\x00\x00\x00o\x00\x00\x00p\x00\x00\x00l\x00\x00\x00i\x00\x00\x00g\x00\x00\x00h\x00\x00\x00t\x00\x00\x00'
p7937
tp7938
Rp7939
sg5211
I83
sg5212
I160
sg5213
I13
sg5214
I840
sg5215
(lp7940
g6123
asg5075
I37
sa(dp7941
g5191
g5192
(g5196
S'\x01\x00\x00\x00\x00\x00\x00\x00'
p7942
tp7943
Rp7944
sg5202
g5192
(g5193
(S'U3'
p7945
I0
I1
tp7946
Rp7947
(I3
S'<'
p7948
NNNI12
I4
I8
tp7949
bS'v\x00\x00\x00a\x00\x00\x00n\x00\x00\x00'
p7950
tp7951
Rp7952
sg5211
I327
sg5212
I275
sg5213
I436
sg5214
I490
sg5215
(lp7953
g5535
asg5075
I38
sa(dp7954
g5191
g5192
(g5196
S'\x01\x00\x00\x00\x00\x00\x00\x00'
p7955
tp7956
Rp7957
sg5202
g5192
(g5193
(S'U4'
p7958
I0
I1
tp7959
Rp7960
(I3
S'<'
p7961
NNNI16
I4
I8
tp7962
bS's\x00\x00\x00i\x00\x00\x00g\x00\x00\x00n\x00\x00\x00'
p7963
tp7964
Rp7965
sg5211
I169
sg5212
I240
sg5213
I85
sg5214
I59
sg5215
(lp7966
g5230
asg5075
I39
sa(dp7967
g5191
g5192
(g5196
S'\x01\x00\x00\x00\x00\x00\x00\x00'
p7968
tp7969
Rp7970
sg5202
g5192
(g5193
(S'U4'
p7971
I0
I1
tp7972
Rp7973
(I3
S'<'
p7974
NNNI16
I4
I8
tp7975
bS'f\x00\x00\x00l\x00\x00\x00a\x00\x00\x00g\x00\x00\x00'
p7976
tp7977
Rp7978
sg5211
I160
sg5212
I121
sg5213
I258
sg5214
I796
sg5215
(lp7979
g5230
asg5075
I40
sa(dp7980
g5191
g5192
(g5196
S'\x01\x00\x00\x00\x00\x00\x00\x00'
p7981
tp7982
Rp7983
sg5202
g5192
(g5193
(S'U3'
p7984
I0
I1
tp7985
Rp7986
(I3
S'<'
p7987
NNNI12
I4
I8
tp7988
bS's\x00\x00\x00k\x00\x00\x00y\x00\x00\x00'
p7989
tp7990
Rp7991
sg5211
I716
sg5212
I400
sg5213
I5
sg5214
I275
sg5215
(lp7992
g5230
asg5075
I41
sa(dp7993
g5191
g5192
(g5196
S'\x01\x00\x00\x00\x00\x00\x00\x00'
p7994
tp7995
Rp7996
sg5202
g5192
(g5193
(S'U4'
p7997
I0
I1
tp7998
Rp7999
(I3
S'<'
p8000
NNNI16
I4
I8
tp8001
bS't\x00\x00\x00r\x00\x00\x00e\x00\x00\x00e\x00\x00\x00'
p8002
tp8003
Rp8004
sg5211
I161
sg5212
I363
sg5213
I156
sg5214
I703
sg5215
(lp8005
g5230
asg5075
I42
sa(dp8006
g5191
g5192
(g5196
S'\x01\x00\x00\x00\x00\x00\x00\x00'
p8007
tp8008
Rp8009
sg5202
g5192
(g5193
(S'U4'
p8010
I0
I1
tp8011
Rp8012
(I3
S'<'
p8013
NNNI16
I4
I8
tp8014
bS'c\x00\x00\x00i\x00\x00\x00t\x00\x00\x00y\x00\x00\x00'
p8015
tp8016
Rp8017
sg5211
I968
sg5212
I729
sg5213
I26
sg5214
I25
sg5215
(lp8018
g5230
asg5075
I43
sa(dp8019
g5191
g5192
(g5196
S'\x01\x00\x00\x00\x00\x00\x00\x00'
p8020
tp8021
Rp8022
sg5202
g5192
(g5193
(S'U4'
p8023
I0
I1
tp8024
Rp8025
(I3
S'<'
p8026
NNNI16
I4
I8
tp8027
bS't\x00\x00\x00r\x00\x00\x00e\x00\x00\x00e\x00\x00\x00'
p8028
tp8029
Rp8030
sg5211
I121
sg5212
I175
sg5213
I169
sg5214
I866
sg5215
(lp8031
g5230
asg5075
I44
sa(dp8032
g5191
g5192
(g5196
S'\x01\x00\x00\x00\x00\x00\x00\x00'
p8033
tp8034
Rp8035
sg5202
g5192
(g5193
(S'U4'
p8036
I0
I1
tp8037
Rp8038
(I3
S'<'
p8039
NNNI16
I4
I8
tp8040
bS't\x00\x00\x00r\x00\x00\x00e\x00\x00\x00e\x00\x00\x00'
p8041
tp8042
Rp8043
sg5211
I113
sg5212
I85
sg5213
I195
sg5214
I866
sg5215
(lp8044
g5230
asg5075
I45
sa(dp8045
g5191
g5192
(g5196
S'\x01\x00\x00\x00\x00\x00\x00\x00'
p8046
tp8047
Rp8048
sg5202
g5192
(g5193
(S'U4'
p8049
I0
I1
tp8050
Rp8051
(I3
S'<'
p8052
NNNI16
I4
I8
tp8053
bS't\x00\x00\x00r\x00\x00\x00e\x00\x00\x00e\x00\x00\x00'
p8054
tp8055
Rp8056
sg5211
I57
sg5212
I121
sg5213
I160
sg5214
I935
sg5215
(lp8057
g5230
asg5075
I46
sa(dp8058
g5191
g5192
(g5196
S'\x01\x00\x00\x00\x00\x00\x00\x00'
p8059
tp8060
Rp8061
sg5202
g5192
(g5193
(S'U8'
p8062
I0
I1
tp8063
Rp8064
(I3
S'<'
p8065
NNNI32
I4
I8
tp8066
bS'v\x00\x00\x00e\x00\x00\x00h\x00\x00\x00i\x00\x00\x00c\x00\x00\x00l\x00\x00\x00e\x00\x00\x00s\x00\x00\x00'
p8067
tp8068
Rp8069
sg5211
I450
sg5212
I297
sg5213
I392
sg5214
I408
sg5215
(lp8070
g5230
asg5075
I47
sa(dp8071
g5191
g5192
(g5196
S'\x01\x00\x00\x00\x00\x00\x00\x00'
p8072
tp8073
Rp8074
sg5202
g5192
(g5193
(S'U4'
p8075
I0
I1
tp8076
Rp8077
(I3
S'<'
p8078
NNNI16
I4
I8
tp8079
bS'r\x00\x00\x00o\x00\x00\x00a\x00\x00\x00d\x00\x00\x00'
p8080
tp8081
Rp8082
sg5211
I63
sg5212
I122
sg5213
I608
sg5214
I425
sg5215
(lp8083
g5230
asg5075
I48
sa(dp8084
g5191
g5192
(g5196
S'\x01\x00\x00\x00\x00\x00\x00\x00'
p8085
tp8086
Rp8087
sg5202
g5192
(g5193
(S'U6'
p8088
I0
I1
tp8089
Rp8090
(I3
S'<'
p8091
NNNI24
I4
I8
tp8092
bS'l\x00\x00\x00i\x00\x00\x00g\x00\x00\x00h\x00\x00\x00t\x00\x00\x00s\x00\x00\x00'
p8093
tp8094
Rp8095
sg5211
I282
sg5212
I87
sg5213
I305
sg5214
I328
sg5215
(lp8096
g5230
asg5075
I49
sa(dp8097
g5191
g5192
(g5196
S'\x01\x00\x00\x00\x00\x00\x00\x00'
p8098
tp8099
Rp8100
sg5202
g5192
(g5193
(S'U4'
p8101
I0
I1
tp8102
Rp8103
(I3
S'<'
p8104
NNNI16
I4
I8
tp8105
bS'r\x00\x00\x00o\x00\x00\x00a\x00\x00\x00d\x00\x00\x00'
p8106
tp8107
Rp8108
sg5211
I100
sg5212
I59
sg5213
I575
sg5214
I358
sg5215
(lp8109
g5230
asg5075
I50
sa(dp8110
g5191
g5192
(g5196
S'\x01\x00\x00\x00\x00\x00\x00\x00'
p8111
tp8112
Rp8113
sg5202
g5192
(g5193
(S'U4'
p8114
I0
I1
tp8115
Rp8116
(I3
S'<'
p8117
NNNI16
I4
I8
tp8118
bS's\x00\x00\x00i\x00\x00\x00g\x00\x00\x00n\x00\x00\x00'
p8119
tp8120
Rp8121
sg5211
I70
sg5212
I67
sg5213
I309
sg5214
I153
sg5215
(lp8122
sg5075
I51
sasa(dp8123
g5062
(lp8124
(dp8125
g5065
g5073
sg5074
I0
sg5075
I1
sg5076
I0
sa(dp8126
g5065
g5085
sg5074
I1
sg5075
I1
sg5076
I1
sa(dp8127
g5065
g5085
sg5074
I2
sg5075
I14
sg5076
I1
sa(dp8128
g5065
g5085
sg5074
I3
sg5075
I14
sg5076
I1
sa(dp8129
g5065
g5085
sg5074
I4
sg5075
I14
sg5076
I2
sa(dp8130
g5065
g5085
sg5074
I5
sg5075
I12
sg5076
I2
sa(dp8131
g5065
g5085
sg5074
I6
sg5075
I12
sg5076
I2
sa(dp8132
g5065
g5094
sg5074
I7
sg5075
I2
sg5076
I4
sa(dp8133
g5065
g5094
sg5074
I8
sg5075
I2
sg5076
I4
sa(dp8134
g5065
g5136
sg5074
I9
sg5075
I2
sg5076
I5
sa(dp8135
g5065
(S'against'
p8136
S'are against'
p8137
S'against a'
p8138
S'is against'
p8139
tp8140
sg5074
I10
sg5075
I2
sg5076
I6
sa(dp8141
g5065
g6088
sg5074
I11
sg5075
I14
sg5076
I7
sa(dp8142
g5065
g6088
sg5074
I12
sg5075
I14
sg5076
I7
sa(dp8143
g5065
g5085
sg5074
I13
sg5075
I14
sg5076
I9
sa(dp8144
g5065
g6068
sg5074
I14
sg5075
I14
sg5076
I10
sa(dp8145
g5065
g6100
sg5074
I15
sg5075
I14
sg5076
I11
sa(dp8146
g5065
g5136
sg5074
I16
sg5075
I14
sg5076
I12
sa(dp8147
g5065
g5094
sg5074
I17
sg5075
I2
sg5076
I12
sa(dp8148
g5065
g5094
sg5074
I18
sg5075
I2
sg5076
I12
sa(dp8149
g5065
g7015
sg5074
I19
sg5075
I2
sg5076
I14
sa(dp8150
g5065
g5085
sg5074
I20
sg5075
I3
sg5076
I14
sa(dp8151
g5065
g5085
sg5074
I21
sg5075
I3
sg5076
I14
sa(dp8152
g5065
g5136
sg5074
I22
sg5075
I7
sg5076
I14
sa(dp8153
g5065
g5136
sg5074
I23
sg5075
I7
sg5076
I14
sa(dp8154
g5065
g5085
sg5074
I24
sg5075
I1
sg5076
I15
sa(dp8155
g5065
g5094
sg5074
I25
sg5075
I2
sg5076
I15
sa(dp8156
g5065
g5094
sg5074
I26
sg5075
I2
sg5076
I15
sa(dp8157
g5065
(S'parked near'
p8158
S'parked near an'
p8159
S'parked near a'
p8160
S'are parked near'
p8161
tp8162
sg5074
I27
sg5075
I14
sg5076
I16
sa(dp8163
g5065
g8162
sg5074
I28
sg5075
I14
sg5076
I16
sa(dp8164
g5065
g5136
sg5074
I29
sg5075
I14
sg5076
I17
sa(dp8165
g5065
g6068
sg5074
I30
sg5075
I14
sg5076
I18
sasg5188
(lp8166
(dp8167
g5191
g5192
(g5196
S'\x01\x00\x00\x00\x00\x00\x00\x00'
p8168
tp8169
Rp8170
sg5202
g5192
(g5193
(S'U4'
p8171
I0
I1
tp8172
Rp8173
(I3
S'<'
p8174
NNNI16
I4
I8
tp8175
bS'e\x00\x00\x00d\x00\x00\x00g\x00\x00\x00e\x00\x00\x00'
p8176
tp8177
Rp8178
sg5211
I19
sg5212
I110
sg5213
I260
sg5214
I171
sg5215
(lp8179
g6967
asg5075
I0
sa(dp8180
g5191
g5192
(g5196
S'\x01\x00\x00\x00\x00\x00\x00\x00'
p8181
tp8182
Rp8183
sg5202
g5192
(g5193
(S'U8'
p8184
I0
I1
tp8185
Rp8186
(I3
S'<'
p8187
NNNI32
I4
I8
tp8188
bS'b\x00\x00\x00u\x00\x00\x00i\x00\x00\x00l\x00\x00\x00d\x00\x00\x00i\x00\x00\x00n\x00\x00\x00g\x00\x00\x00'
p8189
tp8190
Rp8191
sg5211
I201
sg5212
I113
sg5213
I259
sg5214
I78
sg5215
(lp8192
g5230
ag5230
ag5230
asg5075
I1
sa(dp8193
g5191
g5192
(g5196
S'\x01\x00\x00\x00\x00\x00\x00\x00'
p8194
tp8195
Rp8196
sg5202
g5192
(g5193
(S'U3'
p8197
I0
I1
tp8198
Rp8199
(I3
S'<'
p8200
NNNI12
I4
I8
tp8201
bS's\x00\x00\x00k\x00\x00\x00y\x00\x00\x00'
p8202
tp8203
Rp8204
sg5211
I495
sg5212
I323
sg5213
I0
sg5214
I4
sg5215
(lp8205
g5230
ag5230
ag5230
ag5230
ag5230
asg5075
I2
sa(dp8206
g5191
g5192
(g5196
S'\x01\x00\x00\x00\x00\x00\x00\x00'
p8207
tp8208
Rp8209
sg5202
g5192
(g5193
(S'U4'
p8210
I0
I1
tp8211
Rp8212
(I3
S'<'
p8213
NNNI16
I4
I8
tp8214
bS'r\x00\x00\x00o\x00\x00\x00a\x00\x00\x00d\x00\x00\x00'
p8215
tp8216
Rp8217
sg5211
I277
sg5212
I24
sg5213
I350
sg5214
I174
sg5215
(lp8218
g5230
asg5075
I3
sa(dp8219
g5191
g5192
(g5196
S'\x01\x00\x00\x00\x00\x00\x00\x00'
p8220
tp8221
Rp8222
sg5202
g5192
(g5193
(S'U4'
p8223
I0
I1
tp8224
Rp8225
(I3
S'<'
p8226
NNNI16
I4
I8
tp8227
bS's\x00\x00\x00i\x00\x00\x00g\x00\x00\x00n\x00\x00\x00'
p8228
tp8229
Rp8230
sg5211
I94
sg5212
I104
sg5213
I179
sg5214
I180
sg5215
(lp8231
g5230
aVlit up
p8232
ag5230
asg5075
I4
sa(dp8233
g5191
g5192
(g5196
S'\x01\x00\x00\x00\x00\x00\x00\x00'
p8234
tp8235
Rp8236
sg5202
g5192
(g5193
(S'U5'
p8237
I0
I1
tp8238
Rp8239
(I3
S'<'
p8240
NNNI20
I4
I8
tp8241
bS't\x00\x00\x00r\x00\x00\x00u\x00\x00\x00c\x00\x00\x00k\x00\x00\x00'
p8242
tp8243
Rp8244
sg5211
I86
sg5212
I35
sg5213
I334
sg5214
I228
sg5215
(lp8245
g5230
asg5075
I5
sa(dp8246
g5191
g5192
(g5196
S'\x01\x00\x00\x00\x00\x00\x00\x00'
p8247
tp8248
Rp8249
sg5202
g5192
(g5193
(S'U10'
p8250
I0
I1
tp8251
Rp8252
(I3
S'<'
p8253
NNNI40
I4
I8
tp8254
bS'l\x00\x00\x00i\x00\x00\x00g\x00\x00\x00h\x00\x00\x00t\x00\x00\x00 \x00\x00\x00p\x00\x00\x00o\x00\x00\x00l\x00\x00\x00e\x00\x00\x00'
p8255
tp8256
Rp8257
sg5211
I97
sg5212
I276
sg5213
I98
sg5214
I390
sg5215
(lp8258
g5949
asg5075
I6
sa(dp8259
g5191
g5192
(g5196
S'\x01\x00\x00\x00\x00\x00\x00\x00'
p8260
tp8261
Rp8262
sg5202
g5192
(g5193
(S'U5'
p8263
I0
I1
tp8264
Rp8265
(I3
S'<'
p8266
NNNI20
I4
I8
tp8267
bS's\x00\x00\x00t\x00\x00\x00o\x00\x00\x00r\x00\x00\x00e\x00\x00\x00'
p8268
tp8269
Rp8270
sg5211
I89
sg5212
I83
sg5213
I288
sg5214
I3
sg5215
(lp8271
Vbrick 
p8272
ag8272
ag8272
asg5075
I7
sa(dp8273
g5191
g5192
(g5196
S'\x01\x00\x00\x00\x00\x00\x00\x00'
p8274
tp8275
Rp8276
sg5202
g5192
(g5193
(S'U7'
p8277
I0
I1
tp8278
Rp8279
(I3
S'<'
p8280
NNNI28
I4
I8
tp8281
bS's\x00\x00\x00t\x00\x00\x00i\x00\x00\x00c\x00\x00\x00k\x00\x00\x00e\x00\x00\x00r\x00\x00\x00'
p8282
tp8283
Rp8284
sg5211
I41
sg5212
I27
sg5213
I243
sg5214
I201
sg5215
(lp8285
g5230
asg5075
I8
sa(dp8286
g5191
g5192
(g5196
S'\x01\x00\x00\x00\x00\x00\x00\x00'
p8287
tp8288
Rp8289
sg5202
g5192
(g5193
(S'U4'
p8290
I0
I1
tp8291
Rp8292
(I3
S'<'
p8293
NNNI16
I4
I8
tp8294
bS't\x00\x00\x00r\x00\x00\x00e\x00\x00\x00e\x00\x00\x00'
p8295
tp8296
Rp8297
sg5211
I114
sg5212
I134
sg5213
I202
sg5214
I384
sg5215
(lp8298
g5230
asg5075
I9
sa(dp8299
g5191
g5192
(g5196
S'\x01\x00\x00\x00\x00\x00\x00\x00'
p8300
tp8301
Rp8302
sg5202
g5192
(g5193
(S'U7'
p8303
I0
I1
tp8304
Rp8305
(I3
S'<'
p8306
NNNI28
I4
I8
tp8307
bS'v\x00\x00\x00e\x00\x00\x00h\x00\x00\x00i\x00\x00\x00c\x00\x00\x00l\x00\x00\x00e\x00\x00\x00'
p8308
tp8309
Rp8310
sg5211
I13
sg5212
I19
sg5213
I343
sg5214
I308
sg5215
(lp8311
Vmaroon
p8312
asg5075
I10
sa(dp8313
g5191
g5192
(g5196
S'\x01\x00\x00\x00\x00\x00\x00\x00'
p8314
tp8315
Rp8316
sg5202
g5192
(g5193
(S'U4'
p8317
I0
I1
tp8318
Rp8319
(I3
S'<'
p8320
NNNI16
I4
I8
tp8321
bS'p\x00\x00\x00o\x00\x00\x00s\x00\x00\x00t\x00\x00\x00'
p8322
tp8323
Rp8324
sg5211
I20
sg5212
I56
sg5213
I283
sg5214
I329
sg5215
(lp8325
g5230
asg5075
I11
sa(dp8326
g5191
g5192
(g5196
S'\x01\x00\x00\x00\x00\x00\x00\x00'
p8327
tp8328
Rp8329
sg5202
g5192
(g5193
(S'U4'
p8330
I0
I1
tp8331
Rp8332
(I3
S'<'
p8333
NNNI16
I4
I8
tp8334
bS's\x00\x00\x00i\x00\x00\x00g\x00\x00\x00n\x00\x00\x00'
p8335
tp8336
Rp8337
sg5211
I48
sg5212
I48
sg5213
I110
sg5214
I196
sg5215
(lp8338
g5230
ag5230
ag5230
asg5075
I12
sa(dp8339
g5191
g5192
(g5196
S'\x01\x00\x00\x00\x00\x00\x00\x00'
p8340
tp8341
Rp8342
sg5202
g5192
(g5193
(S'U6'
p8343
I0
I1
tp8344
Rp8345
(I3
S'<'
p8346
NNNI24
I4
I8
tp8347
bS'm\x00\x00\x00e\x00\x00\x00d\x00\x00\x00i\x00\x00\x00n\x00\x00\x00a\x00\x00\x00'
p8348
tp8349
Rp8350
sg5211
I30
sg5212
I35
sg5213
I118
sg5214
I207
sg5215
(lp8351
sg5075
I13
sa(dp8352
g5191
g5192
(g5196
S'\x01\x00\x00\x00\x00\x00\x00\x00'
p8353
tp8354
Rp8355
sg5202
g5192
(g5193
(S'U4'
p8356
I0
I1
tp8357
Rp8358
(I3
S'<'
p8359
NNNI16
I4
I8
tp8360
bS't\x00\x00\x00r\x00\x00\x00e\x00\x00\x00e\x00\x00\x00'
p8361
tp8362
Rp8363
sg5211
I63
sg5212
I112
sg5213
I227
sg5214
I0
sg5215
(lp8364
g5230
ag5230
ag5230
ag5230
ag5230
asg5075
I14
sa(dp8365
g5191
g5192
(g5196
S'\x01\x00\x00\x00\x00\x00\x00\x00'
p8366
tp8367
Rp8368
sg5202
g5192
(g5193
(S'U4'
p8369
I0
I1
tp8370
Rp8371
(I3
S'<'
p8372
NNNI16
I4
I8
tp8373
bS's\x00\x00\x00i\x00\x00\x00g\x00\x00\x00n\x00\x00\x00'
p8374
tp8375
Rp8376
sg5211
I73
sg5212
I43
sg5213
I148
sg5214
I190
sg5215
(lp8377
g5230
ag5230
ag5230
asg5075
I15
sa(dp8378
g5191
g5192
(g5196
S'\x01\x00\x00\x00\x00\x00\x00\x00'
p8379
tp8380
Rp8381
sg5202
g5192
(g5193
(S'U3'
p8382
I0
I1
tp8383
Rp8384
(I3
S'<'
p8385
NNNI12
I4
I8
tp8386
bS's\x00\x00\x00u\x00\x00\x00v\x00\x00\x00'
p8387
tp8388
Rp8389
sg5211
I21
sg5212
I26
sg5213
I348
sg5214
I3
sg5215
(lp8390
g5284
ag5284
ag5284
asg5075
I16
sa(dp8391
g5191
g5192
(g5196
S'\x01\x00\x00\x00\x00\x00\x00\x00'
p8392
tp8393
Rp8394
sg5202
g5192
(g5193
(S'U5'
p8395
I0
I1
tp8396
Rp8397
(I3
S'<'
p8398
NNNI20
I4
I8
tp8399
bS'f\x00\x00\x00e\x00\x00\x00n\x00\x00\x00c\x00\x00\x00e\x00\x00\x00'
p8400
tp8401
Rp8402
sg5211
I80
sg5212
I35
sg5213
I324
sg5214
I419
sg5215
(lp8403
g5230
asg5075
I17
sa(dp8404
g5191
g5192
(g5196
S'\x01\x00\x00\x00\x00\x00\x00\x00'
p8405
tp8406
Rp8407
sg5202
g5192
(g5193
(S'U6'
p8408
I0
I1
tp8409
Rp8410
(I3
S'<'
p8411
NNNI24
I4
I8
tp8412
bS'l\x00\x00\x00e\x00\x00\x00t\x00\x00\x00t\x00\x00\x00e\x00\x00\x00r\x00\x00\x00'
p8413
tp8414
Rp8415
sg5211
I10
sg5212
I21
sg5213
I160
sg5214
I217
sg5215
(lp8416
g5230
ag5230
ag5230
asg5075
I18
sa(dp8417
g5191
g5192
(g5196
S'\x01\x00\x00\x00\x00\x00\x00\x00'
p8418
tp8419
Rp8420
sg5202
g5192
(g5193
(S'U6'
p8421
I0
I1
tp8422
Rp8423
(I3
S'<'
p8424
NNNI24
I4
I8
tp8425
bS'l\x00\x00\x00e\x00\x00\x00t\x00\x00\x00t\x00\x00\x00e\x00\x00\x00r\x00\x00\x00'
p8426
tp8427
Rp8428
sg5211
I8
sg5212
I13
sg5213
I153
sg5214
I245
sg5215
(lp8429
g5230
ag5230
asg5075
I19
sa(dp8430
g5191
g5192
(g5196
S'\x01\x00\x00\x00\x00\x00\x00\x00'
p8431
tp8432
Rp8433
sg5202
g5192
(g5193
(S'U6'
p8434
I0
I1
tp8435
Rp8436
(I3
S'<'
p8437
NNNI24
I4
I8
tp8438
bS'l\x00\x00\x00e\x00\x00\x00t\x00\x00\x00t\x00\x00\x00e\x00\x00\x00r\x00\x00\x00'
p8439
tp8440
Rp8441
sg5211
I10
sg5212
I14
sg5213
I149
sg5214
I249
sg5215
(lp8442
g5230
ag5230
asg5075
I20
sa(dp8443
g5191
g5192
(g5196
S'\x01\x00\x00\x00\x00\x00\x00\x00'
p8444
tp8445
Rp8446
sg5202
g5192
(g5193
(S'U6'
p8447
I0
I1
tp8448
Rp8449
(I3
S'<'
p8450
NNNI24
I4
I8
tp8451
bS'l\x00\x00\x00e\x00\x00\x00t\x00\x00\x00t\x00\x00\x00e\x00\x00\x00r\x00\x00\x00'
p8452
tp8453
Rp8454
sg5211
I8
sg5212
I15
sg5213
I168
sg5214
I196
sg5215
(lp8455
sg5075
I21
sasa(dp8456
g5062
(lp8457
(dp8458
g5065
(S'standing in'
p8459
S'standing in a'
p8460
S'standing in an'
p8461
S'are standing in'
p8462
S'are standing in a'
p8463
S'are standing in the'
p8464
S'standing in the'
p8465
tp8466
sg5074
I0
sg5075
I1
sg5076
I0
sa(dp8467
g5065
g5136
sg5074
I1
sg5075
I1
sg5076
I1
sa(dp8468
g5065
g5157
sg5074
I2
sg5075
I1
sg5076
I4
sa(dp8469
g5065
g5181
sg5074
I3
sg5075
I1
sg5076
I5
sa(dp8470
g5065
g5157
sg5074
I4
sg5075
I1
sg5076
I7
sa(dp8471
g5065
g5181
sg5074
I5
sg5075
I1
sg5076
I8
sa(dp8472
g5065
(S'surrounded by'
p8473
S'are surrounded by'
p8474
S'surrounded by a'
p8475
S'is surrounded by'
p8476
tp8477
sg5074
I6
sg5075
I1
sg5076
I11
sa(dp8478
g5065
g7008
sg5074
I7
sg5075
I1
sg5076
I13
sa(dp8479
g5065
g5136
sg5074
I8
sg5075
I1
sg5076
I14
sa(dp8480
g5065
g7015
sg5074
I9
sg5075
I1
sg5076
I15
sa(dp8481
g5065
(S'has'
p8482
S'has a'
p8483
S'has an'
p8484
S'has the'
p8485
S'has a a'
p8486
tp8487
sg5074
I10
sg5075
I1
sg5076
I16
sa(dp8488
g5065
(S'full of'
p8489
S'are full of'
p8490
S'is full of'
p8491
S'full of a'
p8492
tp8493
sg5074
I11
sg5075
I1
sg5076
I17
sa(dp8494
g5065
g7018
sg5074
I12
sg5075
I1
sg5076
I18
sa(dp8495
g5065
g7018
sg5074
I13
sg5075
I1
sg5076
I19
sa(dp8496
g5065
g5136
sg5074
I14
sg5075
I1
sg5076
I20
sa(dp8497
g5065
g7018
sg5074
I15
sg5075
I1
sg5076
I21
sa(dp8498
g5065
g7018
sg5074
I16
sg5075
I1
sg5076
I22
sa(dp8499
g5065
g5136
sg5074
I17
sg5075
I1
sg5076
I23
sa(dp8500
g5065
g7018
sg5074
I18
sg5075
I1
sg5076
I24
sa(dp8501
g5065
g5181
sg5074
I19
sg5075
I1
sg5076
I25
sa(dp8502
g5065
g7018
sg5074
I20
sg5075
I1
sg5076
I27
sa(dp8503
g5065
g7018
sg5074
I21
sg5075
I1
sg5076
I28
sa(dp8504
g5065
g5136
sg5074
I22
sg5075
I1
sg5076
I29
sa(dp8505
g5065
g5579
sg5074
I23
sg5075
I1
sg5076
I30
sa(dp8506
g5065
g5085
sg5074
I24
sg5075
I1
sg5076
I31
sa(dp8507
g5065
g5157
sg5074
I25
sg5075
I1
sg5076
I32
sa(dp8508
g5065
g8493
sg5074
I26
sg5075
I1
sg5076
I33
sa(dp8509
g5065
(S'shows'
p8510
S'shows a'
p8511
S'shows an'
p8512
tp8513
sg5074
I27
sg5075
I1
sg5076
I34
sasg5188
(lp8514
(dp8515
g5191
g5192
(g5196
S'\x01\x00\x00\x00\x00\x00\x00\x00'
p8516
tp8517
Rp8518
sg5202
g5192
(g5193
(S'U5'
p8519
I0
I1
tp8520
Rp8521
(I3
S'<'
p8522
NNNI20
I4
I8
tp8523
bS'w\x00\x00\x00o\x00\x00\x00m\x00\x00\x00a\x00\x00\x00n\x00\x00\x00'
p8524
tp8525
Rp8526
sg5211
I234
sg5212
I342
sg5213
I1
sg5214
I13
sg5215
(lp8527
g5949
asg5075
I0
sa(dp8528
g5191
g5192
(g5196
S'\x01\x00\x00\x00\x00\x00\x00\x00'
p8529
tp8530
Rp8531
sg5202
g5192
(g5193
(S'U4'
p8532
I0
I1
tp8533
Rp8534
(I3
S'<'
p8535
NNNI16
I4
I8
tp8536
bS'd\x00\x00\x00i\x00\x00\x00r\x00\x00\x00t\x00\x00\x00'
p8537
tp8538
Rp8539
sg5211
I493
sg5212
I94
sg5213
I251
sg5214
I3
sg5215
(lp8540
Vmoving
p8541
asg5075
I1
sa(dp8542
g5191
g5192
(g5196
S'\x01\x00\x00\x00\x00\x00\x00\x00'
p8543
tp8544
Rp8545
sg5202
g5192
(g5193
(S'U7'
p8546
I0
I1
tp8547
Rp8548
(I3
S'<'
p8549
NNNI28
I4
I8
tp8550
bS'f\x00\x00\x00r\x00\x00\x00i\x00\x00\x00s\x00\x00\x00b\x00\x00\x00e\x00\x00\x00e\x00\x00\x00'
p8551
tp8552
Rp8553
sg5211
I99
sg5212
I34
sg5213
I183
sg5214
I190
sg5215
(lp8554
g8541
asg5075
I2
sa(dp8555
g5191
g5192
(g5196
S'\x01\x00\x00\x00\x00\x00\x00\x00'
p8556
tp8557
Rp8558
sg5202
g5192
(g5193
(S'U10'
p8559
I0
I1
tp8560
Rp8561
(I3
S'<'
p8562
NNNI40
I4
I8
tp8563
bS'r\x00\x00\x00i\x00\x00\x00g\x00\x00\x00h\x00\x00\x00t\x00\x00\x00 \x00\x00\x00h\x00\x00\x00a\x00\x00\x00n\x00\x00\x00d\x00\x00\x00'
p8564
tp8565
Rp8566
sg5211
I60
sg5212
I34
sg5213
I193
sg5214
I195
sg5215
(lp8567
Vone
p8568
asg5075
I3
sa(dp8569
g5191
g5192
(g5196
S'\x01\x00\x00\x00\x00\x00\x00\x00'
p8570
tp8571
Rp8572
sg5202
g5192
(g5193
(S'U6'
p8573
I0
I1
tp8574
Rp8575
(I3
S'<'
p8576
NNNI24
I4
I8
tp8577
bS'b\x00\x00\x00o\x00\x00\x00t\x00\x00\x00t\x00\x00\x00l\x00\x00\x00e\x00\x00\x00'
p8578
tp8579
Rp8580
sg5211
I62
sg5212
I62
sg5213
I194
sg5214
I130
sg5215
(lp8581
g5230
asg5075
I4
sa(dp8582
g5191
g5192
(g5196
S'\x01\x00\x00\x00\x00\x00\x00\x00'
p8583
tp8584
Rp8585
sg5202
g5192
(g5193
(S'U9'
p8586
I0
I1
tp8587
Rp8588
(I3
S'<'
p8589
NNNI36
I4
I8
tp8590
bS'l\x00\x00\x00e\x00\x00\x00f\x00\x00\x00t\x00\x00\x00 \x00\x00\x00h\x00\x00\x00a\x00\x00\x00n\x00\x00\x00d\x00\x00\x00'
p8591
tp8592
Rp8593
sg5211
I35
sg5212
I40
sg5213
I212
sg5214
I136
sg5215
(lp8594
g8541
asg5075
I5
sa(dp8595
g5191
g5192
(g5196
S'\x01\x00\x00\x00\x00\x00\x00\x00'
p8596
tp8597
Rp8598
sg5202
g5192
(g5193
(S'U5'
p8599
I0
I1
tp8600
Rp8601
(I3
S'<'
p8602
NNNI20
I4
I8
tp8603
bS's\x00\x00\x00h\x00\x00\x00i\x00\x00\x00r\x00\x00\x00t\x00\x00\x00'
p8604
tp8605
Rp8606
sg5211
I169
sg5212
I180
sg5213
I59
sg5214
I23
sg5215
(lp8607
g5230
asg5075
I6
sa(dp8608
g5191
g5192
(g5196
S'\x01\x00\x00\x00\x00\x00\x00\x00'
p8609
tp8610
Rp8611
sg5202
g5192
(g5193
(S'U5'
p8612
I0
I1
tp8613
Rp8614
(I3
S'<'
p8615
NNNI20
I4
I8
tp8616
bS'p\x00\x00\x00a\x00\x00\x00n\x00\x00\x00t\x00\x00\x00s\x00\x00\x00'
p8617
tp8618
Rp8619
sg5211
I159
sg5212
I151
sg5213
I193
sg5214
I13
sg5215
(lp8620
g5535
asg5075
I7
sa(dp8621
g5191
g5192
(g5196
S'\x01\x00\x00\x00\x00\x00\x00\x00'
p8622
tp8623
Rp8624
sg5202
g5192
(g5193
(S'U6'
p8625
I0
I1
tp8626
Rp8627
(I3
S'<'
p8628
NNNI24
I4
I8
tp8629
bS'b\x00\x00\x00a\x00\x00\x00s\x00\x00\x00k\x00\x00\x00e\x00\x00\x00t\x00\x00\x00'
p8630
tp8631
Rp8632
sg5211
I212
sg5212
I99
sg5213
I245
sg5214
I285
sg5215
(lp8633
g5230
asg5075
I8
sa(dp8634
g5191
g5192
(g5196
S'\x01\x00\x00\x00\x00\x00\x00\x00'
p8635
tp8636
Rp8637
sg5202
g5192
(g5193
(S'U6'
p8638
I0
I1
tp8639
Rp8640
(I3
S'<'
p8641
NNNI24
I4
I8
tp8642
bS'c\x00\x00\x00h\x00\x00\x00a\x00\x00\x00i\x00\x00\x00n\x00\x00\x00s\x00\x00\x00'
p8643
tp8644
Rp8645
sg5211
I193
sg5212
I206
sg5213
I105
sg5214
I301
sg5215
(lp8646
Vchain link
p8647
asg5075
I9
sa(dp8648
g5191
g5192
(g5196
S'\x01\x00\x00\x00\x00\x00\x00\x00'
p8649
tp8650
Rp8651
sg5202
g5192
(g5193
(S'U7'
p8652
I0
I1
tp8653
Rp8654
(I3
S'<'
p8655
NNNI28
I4
I8
tp8656
bS'e\x00\x00\x00a\x00\x00\x00r\x00\x00\x00r\x00\x00\x00i\x00\x00\x00n\x00\x00\x00g\x00\x00\x00'
p8657
tp8658
Rp8659
sg5211
I15
sg5212
I14
sg5213
I62
sg5214
I167
sg5215
(lp8660
g5230
asg5075
I10
sa(dp8661
g5191
g5192
(g5196
S'\x01\x00\x00\x00\x00\x00\x00\x00'
p8662
tp8663
Rp8664
sg5202
g5192
(g5193
(S'U5'
p8665
I0
I1
tp8666
Rp8667
(I3
S'<'
p8668
NNNI20
I4
I8
tp8669
bS'w\x00\x00\x00e\x00\x00\x00e\x00\x00\x00d\x00\x00\x00s\x00\x00\x00'
p8670
tp8671
Rp8672
sg5211
I61
sg5212
I42
sg5213
I272
sg5214
I168
sg5215
(lp8673
g5230
asg5075
I11
sa(dp8674
g5191
g5192
(g5196
S'\x01\x00\x00\x00\x00\x00\x00\x00'
p8675
tp8676
Rp8677
sg5202
g5192
(g5193
(S'U4'
p8678
I0
I1
tp8679
Rp8680
(I3
S'<'
p8681
NNNI16
I4
I8
tp8682
bS'h\x00\x00\x00a\x00\x00\x00i\x00\x00\x00r\x00\x00\x00'
p8683
tp8684
Rp8685
sg5211
I93
sg5212
I67
sg5213
I2
sg5214
I148
sg5215
(lp8686
g5284
asg5075
I12
sa(dp8687
g5191
g5192
(g5196
S'\x01\x00\x00\x00\x00\x00\x00\x00'
p8688
tp8689
Rp8690
sg5202
g5192
(g5193
(S'U8'
p8691
I0
I1
tp8692
Rp8693
(I3
S'<'
p8694
NNNI32
I4
I8
tp8695
bS'b\x00\x00\x00r\x00\x00\x00a\x00\x00\x00n\x00\x00\x00c\x00\x00\x00h\x00\x00\x00e\x00\x00\x00s\x00\x00\x00'
p8696
tp8697
Rp8698
sg5211
I87
sg5212
I75
sg5213
I19
sg5214
I10
sg5215
(lp8699
g5230
asg5075
I13
sa(dp8700
g5191
g5192
(g5196
S'\x01\x00\x00\x00\x00\x00\x00\x00'
p8701
tp8702
Rp8703
sg5202
g5192
(g5193
(S'U4'
p8704
I0
I1
tp8705
Rp8706
(I3
S'<'
p8707
NNNI16
I4
I8
tp8708
bS't\x00\x00\x00r\x00\x00\x00e\x00\x00\x00e\x00\x00\x00'
p8709
tp8710
Rp8711
sg5211
I496
sg5212
I294
sg5213
I1
sg5214
I3
sg5215
(lp8712
g5230
asg5075
I14
sa(dp8713
g5191
g5192
(g5196
S'\x01\x00\x00\x00\x00\x00\x00\x00'
p8714
tp8715
Rp8716
sg5202
g5192
(g5193
(S'U6'
p8717
I0
I1
tp8718
Rp8719
(I3
S'<'
p8720
NNNI24
I4
I8
tp8721
bS'l\x00\x00\x00e\x00\x00\x00a\x00\x00\x00v\x00\x00\x00e\x00\x00\x00s\x00\x00\x00'
p8722
tp8723
Rp8724
sg5211
I120
sg5212
I47
sg5213
I12
sg5214
I38
sg5215
(lp8725
g5230
asg5075
I15
sa(dp8726
g5191
g5192
(g5196
S'\x01\x00\x00\x00\x00\x00\x00\x00'
p8727
tp8728
Rp8729
sg5202
g5192
(g5193
(S'U3'
p8730
I0
I1
tp8731
Rp8732
(I3
S'<'
p8733
NNNI12
I4
I8
tp8734
bS't\x00\x00\x00o\x00\x00\x00p\x00\x00\x00'
p8735
tp8736
Rp8737
sg5211
I21
sg5212
I15
sg5213
I209
sg5214
I170
sg5215
(lp8738
Vsheer
p8739
asg5075
I16
sa(dp8740
g5191
g5192
(g5196
S'\x01\x00\x00\x00\x00\x00\x00\x00'
p8741
tp8742
Rp8743
sg5202
g5192
(g5193
(S'U5'
p8744
I0
I1
tp8745
Rp8746
(I3
S'<'
p8747
NNNI20
I4
I8
tp8748
bS'f\x00\x00\x00l\x00\x00\x00o\x00\x00\x00o\x00\x00\x00r\x00\x00\x00'
p8749
tp8750
Rp8751
sg5211
I105
sg5212
I84
sg5213
I260
sg5214
I173
sg5215
(lp8752
g5535
asg5075
I17
sa(dp8753
g5191
g5192
(g5196
S'\x01\x00\x00\x00\x00\x00\x00\x00'
p8754
tp8755
Rp8756
sg5202
g5192
(g5193
(S'U4'
p8757
I0
I1
tp8758
Rp8759
(I3
S'<'
p8760
NNNI16
I4
I8
tp8761
bS'p\x00\x00\x00a\x00\x00\x00r\x00\x00\x00t\x00\x00\x00'
p8762
tp8763
Rp8764
sg5211
I33
sg5212
I49
sg5213
I280
sg5214
I220
sg5215
(lp8765
Vbronze
p8766
asg5075
I18
sa(dp8767
g5191
g5192
(g5196
S'\x01\x00\x00\x00\x00\x00\x00\x00'
p8768
tp8769
Rp8770
sg5202
g5192
(g5193
(S'U4'
p8771
I0
I1
tp8772
Rp8773
(I3
S'<'
p8774
NNNI16
I4
I8
tp8775
bS'p\x00\x00\x00a\x00\x00\x00r\x00\x00\x00t\x00\x00\x00'
p8776
tp8777
Rp8778
sg5211
I42
sg5212
I51
sg5213
I275
sg5214
I224
sg5215
(lp8779
g8766
asg5075
I19
sa(dp8780
g5191
g5192
(g5196
S'\x01\x00\x00\x00\x00\x00\x00\x00'
p8781
tp8782
Rp8783
sg5202
g5192
(g5193
(S'U6'
p8784
I0
I1
tp8785
Rp8786
(I3
S'<'
p8787
NNNI24
I4
I8
tp8788
bS'g\x00\x00\x00r\x00\x00\x00o\x00\x00\x00u\x00\x00\x00n\x00\x00\x00d\x00\x00\x00'
p8789
tp8790
Rp8791
sg5211
I120
sg5212
I90
sg5213
I252
sg5214
I158
sg5215
(lp8792
g5920
asg5075
I20
sa(dp8793
g5191
g5192
(g5196
S'\x01\x00\x00\x00\x00\x00\x00\x00'
p8794
tp8795
Rp8796
sg5202
g5192
(g5193
(S'U4'
p8797
I0
I1
tp8798
Rp8799
(I3
S'<'
p8800
NNNI16
I4
I8
tp8801
bS'p\x00\x00\x00a\x00\x00\x00r\x00\x00\x00t\x00\x00\x00'
p8802
tp8803
Rp8804
sg5211
I30
sg5212
I26
sg5213
I249
sg5214
I367
sg5215
(lp8805
Vmiddle
p8806
asg5075
I21
sa(dp8807
g5191
g5192
(g5196
S'\x01\x00\x00\x00\x00\x00\x00\x00'
p8808
tp8809
Rp8810
sg5202
g5192
(g5193
(S'U4'
p8811
I0
I1
tp8812
Rp8813
(I3
S'<'
p8814
NNNI16
I4
I8
tp8815
bS'p\x00\x00\x00a\x00\x00\x00r\x00\x00\x00t\x00\x00\x00'
p8816
tp8817
Rp8818
sg5211
I24
sg5212
I22
sg5213
I307
sg5214
I205
sg5215
(lp8819
g8766
asg5075
I22
sa(dp8820
g5191
g5192
(g5196
S'\x01\x00\x00\x00\x00\x00\x00\x00'
p8821
tp8822
Rp8823
sg5202
g5192
(g5193
(S'U6'
p8824
I0
I1
tp8825
Rp8826
(I3
S'<'
p8827
NNNI24
I4
I8
tp8828
bS'g\x00\x00\x00r\x00\x00\x00o\x00\x00\x00u\x00\x00\x00n\x00\x00\x00d\x00\x00\x00'
p8829
tp8830
Rp8831
sg5211
I98
sg5212
I74
sg5213
I270
sg5214
I180
sg5215
(lp8832
g5920
asg5075
I23
sa(dp8833
g5191
g5192
(g5196
S'\x01\x00\x00\x00\x00\x00\x00\x00'
p8834
tp8835
Rp8836
sg5202
g5192
(g5193
(S'U4'
p8837
I0
I1
tp8838
Rp8839
(I3
S'<'
p8840
NNNI16
I4
I8
tp8841
bS'p\x00\x00\x00a\x00\x00\x00r\x00\x00\x00t\x00\x00\x00'
p8842
tp8843
Rp8844
sg5211
I16
sg5212
I38
sg5213
I199
sg5214
I218
sg5215
(lp8845
g8766
asg5075
I24
sa(dp8846
g5191
g5192
(g5196
S'\x01\x00\x00\x00\x00\x00\x00\x00'
p8847
tp8848
Rp8849
sg5202
g5192
(g5193
(S'U4'
p8850
I0
I1
tp8851
Rp8852
(I3
S'<'
p8853
NNNI16
I4
I8
tp8854
bS'h\x00\x00\x00a\x00\x00\x00n\x00\x00\x00d\x00\x00\x00'
p8855
tp8856
Rp8857
sg5211
I51
sg5212
I34
sg5213
I190
sg5214
I205
sg5215
(lp8858
g5445
asg5075
I25
sa(dp8859
g5191
g5192
(g5196
S'\x01\x00\x00\x00\x00\x00\x00\x00'
p8860
tp8861
Rp8862
sg5202
g5192
(g5193
(S'U5'
p8863
I0
I1
tp8864
Rp8865
(I3
S'<'
p8866
NNNI20
I4
I8
tp8867
bS'w\x00\x00\x00r\x00\x00\x00i\x00\x00\x00s\x00\x00\x00t\x00\x00\x00'
p8868
tp8869
Rp8870
sg5211
I23
sg5212
I33
sg5213
I192
sg5214
I202
sg5215
(lp8871
g5445
asg5075
I26
sa(dp8872
g5191
g5192
(g5196
S'\x01\x00\x00\x00\x00\x00\x00\x00'
p8873
tp8874
Rp8875
sg5202
g5192
(g5193
(S'U4'
p8876
I0
I1
tp8877
Rp8878
(I3
S'<'
p8879
NNNI16
I4
I8
tp8880
bS'p\x00\x00\x00a\x00\x00\x00r\x00\x00\x00t\x00\x00\x00'
p8881
tp8882
Rp8883
sg5211
I29
sg5212
I51
sg5213
I193
sg5214
I198
sg5215
(lp8884
g8766
asg5075
I27
sa(dp8885
g5191
g5192
(g5196
S'\x01\x00\x00\x00\x00\x00\x00\x00'
p8886
tp8887
Rp8888
sg5202
g5192
(g5193
(S'U4'
p8889
I0
I1
tp8890
Rp8891
(I3
S'<'
p8892
NNNI16
I4
I8
tp8893
bS'p\x00\x00\x00a\x00\x00\x00r\x00\x00\x00t\x00\x00\x00'
p8894
tp8895
Rp8896
sg5211
I28
sg5212
I37
sg5213
I232
sg5214
I277
sg5215
(lp8897
g8766
asg5075
I28
sa(dp8898
g5191
g5192
(g5196
S'\x01\x00\x00\x00\x00\x00\x00\x00'
p8899
tp8900
Rp8901
sg5202
g5192
(g5193
(S'U6'
p8902
I0
I1
tp8903
Rp8904
(I3
S'<'
p8905
NNNI24
I4
I8
tp8906
bS'g\x00\x00\x00r\x00\x00\x00o\x00\x00\x00u\x00\x00\x00n\x00\x00\x00d\x00\x00\x00'
p8907
tp8908
Rp8909
sg5211
I164
sg5212
I73
sg5213
I248
sg5214
I217
sg5215
(lp8910
g5920
asg5075
I29
sa(dp8911
g5191
g5192
(g5196
S'\x01\x00\x00\x00\x00\x00\x00\x00'
p8912
tp8913
Rp8914
sg5202
g5192
(g5193
(S'U10'
p8915
I0
I1
tp8916
Rp8917
(I3
S'<'
p8918
NNNI40
I4
I8
tp8919
bS't\x00\x00\x00r\x00\x00\x00e\x00\x00\x00e\x00\x00\x00 \x00\x00\x00t\x00\x00\x00r\x00\x00\x00u\x00\x00\x00n\x00\x00\x00k\x00\x00\x00'
p8920
tp8921
Rp8922
sg5211
I49
sg5212
I160
sg5213
I120
sg5214
I148
sg5215
(lp8923
g5230
asg5075
I30
sa(dp8924
g5191
g5192
(g5196
S'\x01\x00\x00\x00\x00\x00\x00\x00'
p8925
tp8926
Rp8927
sg5202
g5192
(g5193
(S'U5'
p8928
I0
I1
tp8929
Rp8930
(I3
S'<'
p8931
NNNI20
I4
I8
tp8932
bS'g\x00\x00\x00r\x00\x00\x00a\x00\x00\x00s\x00\x00\x00s\x00\x00\x00'
p8933
tp8934
Rp8935
sg5211
I276
sg5212
I84
sg5213
I139
sg5214
I221
sg5215
(lp8936
g5230
asg5075
I31
sa(dp8937
g5191
g5192
(g5196
S'\x01\x00\x00\x00\x00\x00\x00\x00'
p8938
tp8939
Rp8940
sg5202
g5192
(g5193
(S'U5'
p8941
I0
I1
tp8942
Rp8943
(I3
S'<'
p8944
NNNI20
I4
I8
tp8945
bS'f\x00\x00\x00i\x00\x00\x00e\x00\x00\x00l\x00\x00\x00d\x00\x00\x00'
p8946
tp8947
Rp8948
sg5211
I170
sg5212
I103
sg5213
I143
sg5214
I193
sg5215
(lp8949
g5230
asg5075
I32
sa(dp8950
g5191
g5192
(g5196
S'\x01\x00\x00\x00\x00\x00\x00\x00'
p8951
tp8952
Rp8953
sg5202
g5192
(g5193
(S'U5'
p8954
I0
I1
tp8955
Rp8956
(I3
S'<'
p8957
NNNI20
I4
I8
tp8958
bS'f\x00\x00\x00l\x00\x00\x00o\x00\x00\x00o\x00\x00\x00r\x00\x00\x00'
p8959
tp8960
Rp8961
sg5211
I82
sg5212
I71
sg5213
I271
sg5214
I184
sg5215
(lp8962
g5535
asg5075
I33
sa(dp8963
g5191
g5192
(g5196
S'\x01\x00\x00\x00\x00\x00\x00\x00'
p8964
tp8965
Rp8966
sg5202
g5192
(g5193
(S'U5'
p8967
I0
I1
tp8968
Rp8969
(I3
S'<'
p8970
NNNI20
I4
I8
tp8971
bS's\x00\x00\x00c\x00\x00\x00e\x00\x00\x00n\x00\x00\x00e\x00\x00\x00'
p8972
tp8973
Rp8974
sg5211
I474
sg5212
I337
sg5213
I7
sg5214
I10
sg5215
(lp8975
Vsunny
p8976
asg5075
I34
sa(dp8977
g5191
g5192
(g5196
S'\x01\x00\x00\x00\x00\x00\x00\x00'
p8978
tp8979
Rp8980
sg5202
g5192
(g5193
(S'U5'
p8981
I0
I1
tp8982
Rp8983
(I3
S'<'
p8984
NNNI20
I4
I8
tp8985
bS'f\x00\x00\x00l\x00\x00\x00o\x00\x00\x00o\x00\x00\x00r\x00\x00\x00'
p8986
tp8987
Rp8988
sg5211
I115
sg5212
I90
sg5213
I167
sg5214
I226
sg5215
(lp8989
sg5075
I35
sasas.